	.section	__TEXT,__text,regular,pure_instructions
	.build_version macos, 10, 15, 4	sdk_version 10, 15, 4
	.intel_syntax noprefix
	.globl	_main                   ## -- Begin function main
	.p2align	4, 0x90
_main:                                  ## @main
Lfunc_begin0:
	.cfi_startproc
	.cfi_personality 155, ___gxx_personality_v0
	.cfi_lsda 16, Lexception0
## %bb.0:
	push	rbp
	.cfi_def_cfa_offset 16
	.cfi_offset rbp, -16
	mov	rbp, rsp
	.cfi_def_cfa_register rbp
	sub	rsp, 1280
	mov	rax, qword ptr [rip + __ZNSt3__14coutE@GOTPCREL]
	mov	rcx, qword ptr [rip + ___stack_chk_guard@GOTPCREL]
	mov	rcx, qword ptr [rcx]
	mov	qword ptr [rbp - 8], rcx
	mov	dword ptr [rbp - 36], 0
	mov	dword ptr [rbp - 40], edi
	mov	qword ptr [rbp - 48], rsi
	mov	rdi, rax
	lea	rsi, [rip + L_.str]
	call	__ZNSt3__1lsINS_11char_traitsIcEEEERNS_13basic_ostreamIcT_EES6_PKc
	mov	rdi, rax
	lea	rsi, [rip + __ZNSt3__1L4endlIcNS_11char_traitsIcEEEERNS_13basic_ostreamIT_T0_EES7_]
	call	__ZNSt3__113basic_ostreamIcNS_11char_traitsIcEEElsEPFRS3_S4_E
	cmp	dword ptr [rbp - 40], 1
	jne	LBB0_40
## %bb.1:
Ltmp18:
	lea	rdi, [rbp - 96]
	call	__ZN10Reltt_InfoC1Ev
Ltmp19:
	jmp	LBB0_2
LBB0_2:
	lea	rdi, [rbp - 96]
	call	__ZN10Reltt_InfoD1Ev
Ltmp20:
	lea	rsi, [rip + L_.str.1]
	lea	rdi, [rbp - 136]
	call	__ZNSt3__112basic_stringIcNS_11char_traitsIcEENS_9allocatorIcEEEC1IDnEEPKc
Ltmp21:
	jmp	LBB0_3
LBB0_3:
Ltmp23:
	lea	rsi, [rip + L_.str.1]
	lea	rdi, [rbp - 160]
	call	__ZNSt3__112basic_stringIcNS_11char_traitsIcEENS_9allocatorIcEEEC1IDnEEPKc
Ltmp24:
	jmp	LBB0_4
LBB0_4:
Ltmp26:
	mov	edi, 424
	call	__Znwm
Ltmp27:
	mov	qword ptr [rbp - 1112], rax ## 8-byte Spill
	jmp	LBB0_5
LBB0_5:
	mov	rax, qword ptr [rbp - 1112] ## 8-byte Reload
Ltmp28:
	mov	rdi, qword ptr [rbp - 1112] ## 8-byte Reload
	mov	qword ptr [rbp - 1120], rax ## 8-byte Spill
	call	__ZN9Reltt_INTC1Ev
Ltmp29:
	jmp	LBB0_6
LBB0_6:
	mov	rax, qword ptr [rbp - 1120] ## 8-byte Reload
	mov	qword ptr [rbp - 168], rax
Ltmp31:
	mov	rdi, qword ptr [rip + __ZNSt3__14coutE@GOTPCREL]
	lea	rsi, [rip + L_.str.2]
	call	__ZNSt3__1lsINS_11char_traitsIcEEEERNS_13basic_ostreamIcT_EES6_PKc
Ltmp32:
	mov	qword ptr [rbp - 1128], rax ## 8-byte Spill
	jmp	LBB0_7
LBB0_7:
Ltmp33:
	lea	rsi, [rip + L_.str.3]
	mov	rdi, qword ptr [rbp - 1128] ## 8-byte Reload
	call	__ZNSt3__1lsINS_11char_traitsIcEEEERNS_13basic_ostreamIcT_EES6_PKc
Ltmp34:
	mov	qword ptr [rbp - 1136], rax ## 8-byte Spill
	jmp	LBB0_8
LBB0_8:
Ltmp35:
	lea	rsi, [rip + L_.str.4]
	mov	rdi, qword ptr [rbp - 1136] ## 8-byte Reload
	call	__ZNSt3__1lsINS_11char_traitsIcEEEERNS_13basic_ostreamIcT_EES6_PKc
Ltmp36:
	mov	qword ptr [rbp - 1144], rax ## 8-byte Spill
	jmp	LBB0_9
LBB0_9:
Ltmp37:
	lea	rsi, [rip + L_.str.5]
	mov	rdi, qword ptr [rbp - 1144] ## 8-byte Reload
	call	__ZNSt3__1lsINS_11char_traitsIcEEEERNS_13basic_ostreamIcT_EES6_PKc
Ltmp38:
	mov	qword ptr [rbp - 1152], rax ## 8-byte Spill
	jmp	LBB0_10
LBB0_10:
Ltmp39:
	lea	rsi, [rip + L_.str.6]
	mov	rdi, qword ptr [rbp - 1152] ## 8-byte Reload
	call	__ZNSt3__1lsINS_11char_traitsIcEEEERNS_13basic_ostreamIcT_EES6_PKc
Ltmp40:
	jmp	LBB0_11
LBB0_11:
	jmp	LBB0_12
LBB0_12:                                ## =>This Inner Loop Header: Depth=1
Ltmp41:
	mov	rdi, qword ptr [rip + __ZNSt3__13cinE@GOTPCREL]
	lea	rsi, [rbp - 160]
	call	__ZNSt3__1L7getlineIcNS_11char_traitsIcEENS_9allocatorIcEEEERNS_13basic_istreamIT_T0_EES9_RNS_12basic_stringIS6_S7_T1_EE
Ltmp42:
	mov	qword ptr [rbp - 1160], rax ## 8-byte Spill
	jmp	LBB0_13
LBB0_13:                                ##   in Loop: Header=BB0_12 Depth=1
	mov	rax, qword ptr [rbp - 1160] ## 8-byte Reload
	mov	rcx, qword ptr [rax]
	mov	rcx, qword ptr [rcx - 24]
	add	rax, rcx
Ltmp43:
	mov	rdi, rax
	call	__ZNKSt3__19basic_iosIcNS_11char_traitsIcEEEcvbEv
Ltmp44:
	mov	byte ptr [rbp - 1161], al ## 1-byte Spill
	jmp	LBB0_14
LBB0_14:                                ##   in Loop: Header=BB0_12 Depth=1
	mov	al, byte ptr [rbp - 1161] ## 1-byte Reload
	test	al, 1
	jne	LBB0_15
	jmp	LBB0_37
LBB0_15:                                ##   in Loop: Header=BB0_12 Depth=1
	lea	rdi, [rbp - 192]
	call	__ZNSt3__16vectorINS_12basic_stringIcNS_11char_traitsIcEENS_9allocatorIcEEEENS4_IS6_EEEC1Ev
Ltmp46:
	lea	rsi, [rip + L_.str.7]
	lea	rdi, [rbp - 216]
	call	__ZNSt3__112basic_stringIcNS_11char_traitsIcEENS_9allocatorIcEEEC1IDnEEPKc
Ltmp47:
	jmp	LBB0_16
LBB0_16:                                ##   in Loop: Header=BB0_12 Depth=1
Ltmp48:
	lea	rdi, [rbp - 216]
	lea	rsi, [rbp - 160]
	call	__ZNSt3__112basic_stringIcNS_11char_traitsIcEENS_9allocatorIcEEE6appendERKS5_
Ltmp49:
	mov	qword ptr [rbp - 1176], rax ## 8-byte Spill
	jmp	LBB0_17
LBB0_17:                                ##   in Loop: Header=BB0_12 Depth=1
Ltmp50:
	lea	rdi, [rbp - 160]
	mov	rsi, qword ptr [rbp - 1176] ## 8-byte Reload
	call	__ZNSt3__112basic_stringIcNS_11char_traitsIcEENS_9allocatorIcEEEaSERKS5_
Ltmp51:
	jmp	LBB0_18
LBB0_18:                                ##   in Loop: Header=BB0_12 Depth=1
	lea	rdi, [rbp - 216]
	call	__ZNSt3__112basic_stringIcNS_11char_traitsIcEENS_9allocatorIcEEED1Ev
Ltmp53:
	lea	rdi, [rbp - 160]
	lea	rsi, [rbp - 192]
	mov	edx, 32
	call	__Z5splitRKNSt3__112basic_stringIcNS_11char_traitsIcEENS_9allocatorIcEEEERNS_6vectorIS5_NS3_IS5_EEEEc
Ltmp54:
	jmp	LBB0_19
LBB0_19:                                ##   in Loop: Header=BB0_12 Depth=1
	mov	rdi, qword ptr [rbp - 168]
	lea	rax, [rbp - 192]
	mov	qword ptr [rbp - 1184], rdi ## 8-byte Spill
	mov	rdi, rax
	mov	qword ptr [rbp - 1192], rax ## 8-byte Spill
	call	__ZNKSt3__16vectorINS_12basic_stringIcNS_11char_traitsIcEENS_9allocatorIcEEEENS4_IS6_EEE4sizeEv
                                        ## kill: def $eax killed $eax killed $rax
Ltmp55:
	lea	rdi, [rbp - 240]
	mov	rsi, qword ptr [rbp - 1192] ## 8-byte Reload
	mov	dword ptr [rbp - 1196], eax ## 4-byte Spill
	call	__ZNSt3__16vectorINS_12basic_stringIcNS_11char_traitsIcEENS_9allocatorIcEEEENS4_IS6_EEEC1ERKS8_
Ltmp56:
	jmp	LBB0_20
LBB0_20:                                ##   in Loop: Header=BB0_12 Depth=1
Ltmp57:
	lea	rdx, [rbp - 240]
	mov	rdi, qword ptr [rbp - 1184] ## 8-byte Reload
	mov	esi, dword ptr [rbp - 1196] ## 4-byte Reload
	call	__ZN9Reltt_INT9AddVectorEiNSt3__16vectorINS0_12basic_stringIcNS0_11char_traitsIcEENS0_9allocatorIcEEEENS5_IS7_EEEE
Ltmp58:
	jmp	LBB0_21
LBB0_21:                                ##   in Loop: Header=BB0_12 Depth=1
	lea	rdi, [rbp - 240]
	call	__ZNSt3__16vectorINS_12basic_stringIcNS_11char_traitsIcEENS_9allocatorIcEEEENS4_IS6_EEED1Ev
	mov	rdi, qword ptr [rbp - 168]
Ltmp60:
	call	__ZN9Reltt_INT5ParseEv
Ltmp61:
	jmp	LBB0_22
LBB0_22:                                ##   in Loop: Header=BB0_12 Depth=1
Ltmp62:
	lea	rsi, [rip + L_.str.7]
	lea	rdi, [rbp - 160]
	call	__ZNSt3__112basic_stringIcNS_11char_traitsIcEENS_9allocatorIcEEEaSEPKc
Ltmp63:
	jmp	LBB0_23
LBB0_23:                                ##   in Loop: Header=BB0_12 Depth=1
Ltmp64:
	mov	rdi, qword ptr [rip + __ZNSt3__14coutE@GOTPCREL]
	lea	rsi, [rip + L_.str.2]
	call	__ZNSt3__1lsINS_11char_traitsIcEEEERNS_13basic_ostreamIcT_EES6_PKc
Ltmp65:
	mov	qword ptr [rbp - 1208], rax ## 8-byte Spill
	jmp	LBB0_24
LBB0_24:                                ##   in Loop: Header=BB0_12 Depth=1
Ltmp66:
	lea	rsi, [rip + L_.str.3]
	mov	rdi, qword ptr [rbp - 1208] ## 8-byte Reload
	call	__ZNSt3__1lsINS_11char_traitsIcEEEERNS_13basic_ostreamIcT_EES6_PKc
Ltmp67:
	mov	qword ptr [rbp - 1216], rax ## 8-byte Spill
	jmp	LBB0_25
LBB0_25:                                ##   in Loop: Header=BB0_12 Depth=1
Ltmp68:
	lea	rsi, [rip + L_.str.4]
	mov	rdi, qword ptr [rbp - 1216] ## 8-byte Reload
	call	__ZNSt3__1lsINS_11char_traitsIcEEEERNS_13basic_ostreamIcT_EES6_PKc
Ltmp69:
	mov	qword ptr [rbp - 1224], rax ## 8-byte Spill
	jmp	LBB0_26
LBB0_26:                                ##   in Loop: Header=BB0_12 Depth=1
Ltmp70:
	lea	rsi, [rip + L_.str.5]
	mov	rdi, qword ptr [rbp - 1224] ## 8-byte Reload
	call	__ZNSt3__1lsINS_11char_traitsIcEEEERNS_13basic_ostreamIcT_EES6_PKc
Ltmp71:
	mov	qword ptr [rbp - 1232], rax ## 8-byte Spill
	jmp	LBB0_27
LBB0_27:                                ##   in Loop: Header=BB0_12 Depth=1
Ltmp72:
	lea	rsi, [rip + L_.str.6]
	mov	rdi, qword ptr [rbp - 1232] ## 8-byte Reload
	call	__ZNSt3__1lsINS_11char_traitsIcEEEERNS_13basic_ostreamIcT_EES6_PKc
Ltmp73:
	jmp	LBB0_28
LBB0_28:                                ##   in Loop: Header=BB0_12 Depth=1
	lea	rdi, [rbp - 192]
	call	__ZNSt3__16vectorINS_12basic_stringIcNS_11char_traitsIcEENS_9allocatorIcEEEENS4_IS6_EEED1Ev
	jmp	LBB0_12
LBB0_29:
Ltmp22:
                                        ## kill: def $edx killed $edx killed $rdx
	mov	qword ptr [rbp - 104], rax
	mov	dword ptr [rbp - 108], edx
	jmp	LBB0_53
LBB0_30:
Ltmp25:
                                        ## kill: def $edx killed $edx killed $rdx
	mov	qword ptr [rbp - 104], rax
	mov	dword ptr [rbp - 108], edx
	jmp	LBB0_39
LBB0_31:
Ltmp45:
                                        ## kill: def $edx killed $edx killed $rdx
	mov	qword ptr [rbp - 104], rax
	mov	dword ptr [rbp - 108], edx
	jmp	LBB0_38
LBB0_32:
Ltmp30:
                                        ## kill: def $edx killed $edx killed $rdx
	mov	qword ptr [rbp - 104], rax
	mov	dword ptr [rbp - 108], edx
	mov	rdi, qword ptr [rbp - 1112] ## 8-byte Reload
	call	__ZdlPv
	jmp	LBB0_38
LBB0_33:
Ltmp74:
                                        ## kill: def $edx killed $edx killed $rdx
	mov	qword ptr [rbp - 104], rax
	mov	dword ptr [rbp - 108], edx
	jmp	LBB0_36
LBB0_34:
Ltmp52:
                                        ## kill: def $edx killed $edx killed $rdx
	mov	qword ptr [rbp - 104], rax
	mov	dword ptr [rbp - 108], edx
	lea	rdi, [rbp - 216]
	call	__ZNSt3__112basic_stringIcNS_11char_traitsIcEENS_9allocatorIcEEED1Ev
	jmp	LBB0_36
LBB0_35:
Ltmp59:
                                        ## kill: def $edx killed $edx killed $rdx
	mov	qword ptr [rbp - 104], rax
	mov	dword ptr [rbp - 108], edx
	lea	rdi, [rbp - 240]
	call	__ZNSt3__16vectorINS_12basic_stringIcNS_11char_traitsIcEENS_9allocatorIcEEEENS4_IS6_EEED1Ev
LBB0_36:
	lea	rdi, [rbp - 192]
	call	__ZNSt3__16vectorINS_12basic_stringIcNS_11char_traitsIcEENS_9allocatorIcEEEENS4_IS6_EEED1Ev
	jmp	LBB0_38
LBB0_37:
	lea	rdi, [rbp - 160]
	call	__ZNSt3__112basic_stringIcNS_11char_traitsIcEENS_9allocatorIcEEED1Ev
	lea	rdi, [rbp - 136]
	call	__ZNSt3__112basic_stringIcNS_11char_traitsIcEENS_9allocatorIcEEED1Ev
	jmp	LBB0_61
LBB0_38:
	lea	rdi, [rbp - 160]
	call	__ZNSt3__112basic_stringIcNS_11char_traitsIcEENS_9allocatorIcEEED1Ev
LBB0_39:
	lea	rdi, [rbp - 136]
	call	__ZNSt3__112basic_stringIcNS_11char_traitsIcEENS_9allocatorIcEEED1Ev
	jmp	LBB0_53
LBB0_40:
	cmp	dword ptr [rbp - 40], 2
	jne	LBB0_49
## %bb.41:
	lea	rax, [rip + L_.str.8]
	mov	qword ptr [rbp - 32], rax
	lea	rax, [rip + L_.str.9]
	mov	qword ptr [rbp - 24], rax
	mov	rax, qword ptr [rbp - 48]
	mov	ecx, dword ptr [rbp - 40]
	dec	ecx
	movsxd	rdx, ecx
	mov	rax, qword ptr [rax + 8*rdx]
	mov	qword ptr [rbp - 16], rax
	mov	rsi, qword ptr [rbp - 24]
Ltmp5:
	mov	rdi, qword ptr [rip + __ZNSt3__14coutE@GOTPCREL]
	call	__ZNSt3__1lsINS_11char_traitsIcEEEERNS_13basic_ostreamIcT_EES6_PKc
Ltmp6:
	mov	qword ptr [rbp - 1240], rax ## 8-byte Spill
	jmp	LBB0_42
LBB0_42:
Ltmp7:
	lea	rsi, [rip + L_.str.10]
	mov	rdi, qword ptr [rbp - 1240] ## 8-byte Reload
	call	__ZNSt3__1lsINS_11char_traitsIcEEEERNS_13basic_ostreamIcT_EES6_PKc
Ltmp8:
	mov	qword ptr [rbp - 1248], rax ## 8-byte Spill
	jmp	LBB0_43
LBB0_43:
	mov	rsi, qword ptr [rbp - 16]
Ltmp9:
	mov	rdi, qword ptr [rbp - 1248] ## 8-byte Reload
	call	__ZNSt3__1lsINS_11char_traitsIcEEEERNS_13basic_ostreamIcT_EES6_PKc
Ltmp10:
	mov	qword ptr [rbp - 1256], rax ## 8-byte Spill
	jmp	LBB0_44
LBB0_44:
Ltmp11:
	lea	rsi, [rip + __ZNSt3__1L4endlIcNS_11char_traitsIcEEEERNS_13basic_ostreamIT_T0_EES7_]
	mov	rdi, qword ptr [rbp - 1256] ## 8-byte Reload
	call	__ZNSt3__113basic_ostreamIcNS_11char_traitsIcEEElsEPFRS3_S4_E
Ltmp12:
	jmp	LBB0_45
LBB0_45:
Ltmp13:
	lea	rdi, [rbp - 664]
	mov	esi, 3
	lea	rdx, [rbp - 32]
	call	__ZN9Reltt_INTC1EiPPc
Ltmp14:
	jmp	LBB0_46
LBB0_46:
Ltmp15:
	lea	rdi, [rbp - 664]
	call	__ZN9Reltt_INT5ParseEv
Ltmp16:
	jmp	LBB0_47
LBB0_47:
	lea	rdi, [rbp - 664]
	call	__ZN9Reltt_INTD1Ev
	jmp	LBB0_60
LBB0_48:
Ltmp17:
                                        ## kill: def $edx killed $edx killed $rdx
	mov	qword ptr [rbp - 104], rax
	mov	dword ptr [rbp - 108], edx
	lea	rdi, [rbp - 664]
	call	__ZN9Reltt_INTD1Ev
	jmp	LBB0_53
LBB0_49:
	mov	esi, dword ptr [rbp - 40]
	mov	rdx, qword ptr [rbp - 48]
Ltmp0:
	lea	rdi, [rbp - 1088]
	call	__ZN9Reltt_INTC1EiPPc
Ltmp1:
	jmp	LBB0_50
LBB0_50:
Ltmp2:
	lea	rdi, [rbp - 1088]
	call	__ZN9Reltt_INT5ParseEv
Ltmp3:
	jmp	LBB0_51
LBB0_51:
	lea	rdi, [rbp - 1088]
	call	__ZN9Reltt_INTD1Ev
	jmp	LBB0_60
LBB0_52:
Ltmp4:
                                        ## kill: def $edx killed $edx killed $rdx
	mov	qword ptr [rbp - 104], rax
	mov	dword ptr [rbp - 108], edx
	lea	rdi, [rbp - 1088]
	call	__ZN9Reltt_INTD1Ev
LBB0_53:
	mov	eax, dword ptr [rbp - 108]
	mov	ecx, 1
	cmp	eax, ecx
	jne	LBB0_64
## %bb.54:
	mov	rdi, qword ptr [rbp - 104]
	call	___cxa_begin_catch
	mov	qword ptr [rbp - 1104], rax
Ltmp75:
	mov	rdi, qword ptr [rip + __ZNSt3__14coutE@GOTPCREL]
	lea	rsi, [rip + L_.str.11]
	call	__ZNSt3__1lsINS_11char_traitsIcEEEERNS_13basic_ostreamIcT_EES6_PKc
Ltmp76:
	mov	qword ptr [rbp - 1264], rax ## 8-byte Spill
	jmp	LBB0_55
LBB0_55:
	mov	rax, qword ptr [rbp - 1104]
	mov	rcx, qword ptr [rax]
	mov	rcx, qword ptr [rcx + 16]
	mov	rdi, rax
	call	rcx
Ltmp77:
	mov	rdi, qword ptr [rbp - 1264] ## 8-byte Reload
	mov	rsi, rax
	call	__ZNSt3__1lsINS_11char_traitsIcEEEERNS_13basic_ostreamIcT_EES6_PKc
Ltmp78:
	mov	qword ptr [rbp - 1272], rax ## 8-byte Spill
	jmp	LBB0_56
LBB0_56:
Ltmp79:
	lea	rsi, [rip + __ZNSt3__1L4endlIcNS_11char_traitsIcEEEERNS_13basic_ostreamIT_T0_EES7_]
	mov	rdi, qword ptr [rbp - 1272] ## 8-byte Reload
	call	__ZNSt3__113basic_ostreamIcNS_11char_traitsIcEEElsEPFRS3_S4_E
Ltmp80:
	jmp	LBB0_57
LBB0_57:
	call	___cxa_end_catch
LBB0_58:
	mov	rax, qword ptr [rip + ___stack_chk_guard@GOTPCREL]
	mov	rax, qword ptr [rax]
	mov	rcx, qword ptr [rbp - 8]
	cmp	rax, rcx
	jne	LBB0_66
## %bb.59:
	xor	eax, eax
	add	rsp, 1280
	pop	rbp
	ret
LBB0_60:
	jmp	LBB0_61
LBB0_61:
	jmp	LBB0_58
LBB0_62:
Ltmp81:
                                        ## kill: def $edx killed $edx killed $rdx
	mov	qword ptr [rbp - 104], rax
	mov	dword ptr [rbp - 108], edx
Ltmp82:
	call	___cxa_end_catch
Ltmp83:
	jmp	LBB0_63
LBB0_63:
	jmp	LBB0_64
LBB0_64:
	mov	rdi, qword ptr [rbp - 104]
	call	__Unwind_Resume
	ud2
LBB0_65:
Ltmp84:
	mov	rdi, rax
	mov	qword ptr [rbp - 1280], rdx ## 8-byte Spill
	call	___clang_call_terminate
LBB0_66:
	call	___stack_chk_fail
	ud2
Lfunc_end0:
	.cfi_endproc
	.section	__TEXT,__gcc_except_tab
	.p2align	2
GCC_except_table0:
Lexception0:
	.byte	255                     ## @LPStart Encoding = omit
	.byte	155                     ## @TType Encoding = indirect pcrel sdata4
	.uleb128 Lttbase0-Lttbaseref0
Lttbaseref0:
	.byte	1                       ## Call site Encoding = uleb128
	.uleb128 Lcst_end0-Lcst_begin0
Lcst_begin0:
	.uleb128 Lfunc_begin0-Lfunc_begin0 ## >> Call Site 1 <<
	.uleb128 Ltmp18-Lfunc_begin0    ##   Call between Lfunc_begin0 and Ltmp18
	.byte	0                       ##     has no landing pad
	.byte	0                       ##   On action: cleanup
	.uleb128 Ltmp18-Lfunc_begin0    ## >> Call Site 2 <<
	.uleb128 Ltmp21-Ltmp18          ##   Call between Ltmp18 and Ltmp21
	.uleb128 Ltmp22-Lfunc_begin0    ##     jumps to Ltmp22
	.byte	5                       ##   On action: 3
	.uleb128 Ltmp23-Lfunc_begin0    ## >> Call Site 3 <<
	.uleb128 Ltmp24-Ltmp23          ##   Call between Ltmp23 and Ltmp24
	.uleb128 Ltmp25-Lfunc_begin0    ##     jumps to Ltmp25
	.byte	3                       ##   On action: 2
	.uleb128 Ltmp26-Lfunc_begin0    ## >> Call Site 4 <<
	.uleb128 Ltmp27-Ltmp26          ##   Call between Ltmp26 and Ltmp27
	.uleb128 Ltmp45-Lfunc_begin0    ##     jumps to Ltmp45
	.byte	3                       ##   On action: 2
	.uleb128 Ltmp28-Lfunc_begin0    ## >> Call Site 5 <<
	.uleb128 Ltmp29-Ltmp28          ##   Call between Ltmp28 and Ltmp29
	.uleb128 Ltmp30-Lfunc_begin0    ##     jumps to Ltmp30
	.byte	3                       ##   On action: 2
	.uleb128 Ltmp31-Lfunc_begin0    ## >> Call Site 6 <<
	.uleb128 Ltmp44-Ltmp31          ##   Call between Ltmp31 and Ltmp44
	.uleb128 Ltmp45-Lfunc_begin0    ##     jumps to Ltmp45
	.byte	3                       ##   On action: 2
	.uleb128 Ltmp46-Lfunc_begin0    ## >> Call Site 7 <<
	.uleb128 Ltmp47-Ltmp46          ##   Call between Ltmp46 and Ltmp47
	.uleb128 Ltmp74-Lfunc_begin0    ##     jumps to Ltmp74
	.byte	3                       ##   On action: 2
	.uleb128 Ltmp48-Lfunc_begin0    ## >> Call Site 8 <<
	.uleb128 Ltmp51-Ltmp48          ##   Call between Ltmp48 and Ltmp51
	.uleb128 Ltmp52-Lfunc_begin0    ##     jumps to Ltmp52
	.byte	3                       ##   On action: 2
	.uleb128 Ltmp53-Lfunc_begin0    ## >> Call Site 9 <<
	.uleb128 Ltmp56-Ltmp53          ##   Call between Ltmp53 and Ltmp56
	.uleb128 Ltmp74-Lfunc_begin0    ##     jumps to Ltmp74
	.byte	3                       ##   On action: 2
	.uleb128 Ltmp57-Lfunc_begin0    ## >> Call Site 10 <<
	.uleb128 Ltmp58-Ltmp57          ##   Call between Ltmp57 and Ltmp58
	.uleb128 Ltmp59-Lfunc_begin0    ##     jumps to Ltmp59
	.byte	3                       ##   On action: 2
	.uleb128 Ltmp60-Lfunc_begin0    ## >> Call Site 11 <<
	.uleb128 Ltmp73-Ltmp60          ##   Call between Ltmp60 and Ltmp73
	.uleb128 Ltmp74-Lfunc_begin0    ##     jumps to Ltmp74
	.byte	3                       ##   On action: 2
	.uleb128 Ltmp5-Lfunc_begin0     ## >> Call Site 12 <<
	.uleb128 Ltmp14-Ltmp5           ##   Call between Ltmp5 and Ltmp14
	.uleb128 Ltmp22-Lfunc_begin0    ##     jumps to Ltmp22
	.byte	5                       ##   On action: 3
	.uleb128 Ltmp15-Lfunc_begin0    ## >> Call Site 13 <<
	.uleb128 Ltmp16-Ltmp15          ##   Call between Ltmp15 and Ltmp16
	.uleb128 Ltmp17-Lfunc_begin0    ##     jumps to Ltmp17
	.byte	3                       ##   On action: 2
	.uleb128 Ltmp0-Lfunc_begin0     ## >> Call Site 14 <<
	.uleb128 Ltmp1-Ltmp0            ##   Call between Ltmp0 and Ltmp1
	.uleb128 Ltmp22-Lfunc_begin0    ##     jumps to Ltmp22
	.byte	5                       ##   On action: 3
	.uleb128 Ltmp2-Lfunc_begin0     ## >> Call Site 15 <<
	.uleb128 Ltmp3-Ltmp2            ##   Call between Ltmp2 and Ltmp3
	.uleb128 Ltmp4-Lfunc_begin0     ##     jumps to Ltmp4
	.byte	3                       ##   On action: 2
	.uleb128 Ltmp3-Lfunc_begin0     ## >> Call Site 16 <<
	.uleb128 Ltmp75-Ltmp3           ##   Call between Ltmp3 and Ltmp75
	.byte	0                       ##     has no landing pad
	.byte	0                       ##   On action: cleanup
	.uleb128 Ltmp75-Lfunc_begin0    ## >> Call Site 17 <<
	.uleb128 Ltmp76-Ltmp75          ##   Call between Ltmp75 and Ltmp76
	.uleb128 Ltmp81-Lfunc_begin0    ##     jumps to Ltmp81
	.byte	0                       ##   On action: cleanup
	.uleb128 Ltmp76-Lfunc_begin0    ## >> Call Site 18 <<
	.uleb128 Ltmp77-Ltmp76          ##   Call between Ltmp76 and Ltmp77
	.byte	0                       ##     has no landing pad
	.byte	0                       ##   On action: cleanup
	.uleb128 Ltmp77-Lfunc_begin0    ## >> Call Site 19 <<
	.uleb128 Ltmp80-Ltmp77          ##   Call between Ltmp77 and Ltmp80
	.uleb128 Ltmp81-Lfunc_begin0    ##     jumps to Ltmp81
	.byte	0                       ##   On action: cleanup
	.uleb128 Ltmp80-Lfunc_begin0    ## >> Call Site 20 <<
	.uleb128 Ltmp82-Ltmp80          ##   Call between Ltmp80 and Ltmp82
	.byte	0                       ##     has no landing pad
	.byte	0                       ##   On action: cleanup
	.uleb128 Ltmp82-Lfunc_begin0    ## >> Call Site 21 <<
	.uleb128 Ltmp83-Ltmp82          ##   Call between Ltmp82 and Ltmp83
	.uleb128 Ltmp84-Lfunc_begin0    ##     jumps to Ltmp84
	.byte	7                       ##   On action: 4
	.uleb128 Ltmp83-Lfunc_begin0    ## >> Call Site 22 <<
	.uleb128 Lfunc_end0-Ltmp83      ##   Call between Ltmp83 and Lfunc_end0
	.byte	0                       ##     has no landing pad
	.byte	0                       ##   On action: cleanup
Lcst_end0:
	.byte	0                       ## >> Action Record 1 <<
                                        ##   Cleanup
	.byte	0                       ##   No further actions
	.byte	1                       ## >> Action Record 2 <<
                                        ##   Catch TypeInfo 1
	.byte	125                     ##   Continue to action 1
	.byte	1                       ## >> Action Record 3 <<
                                        ##   Catch TypeInfo 1
	.byte	0                       ##   No further actions
	.byte	2                       ## >> Action Record 4 <<
                                        ##   Catch TypeInfo 2
	.byte	0                       ##   No further actions
	.p2align	2
                                        ## >> Catch TypeInfos <<
	.long	0                       ## TypeInfo 2
	.long	__ZTISt9exception@GOTPCREL+4 ## TypeInfo 1
Lttbase0:
	.p2align	2
                                        ## -- End function
	.section	__TEXT,__text,regular,pure_instructions
	.globl	__ZNSt3__1lsINS_11char_traitsIcEEEERNS_13basic_ostreamIcT_EES6_PKc ## -- Begin function _ZNSt3__1lsINS_11char_traitsIcEEEERNS_13basic_ostreamIcT_EES6_PKc
	.weak_definition	__ZNSt3__1lsINS_11char_traitsIcEEEERNS_13basic_ostreamIcT_EES6_PKc
	.p2align	4, 0x90
__ZNSt3__1lsINS_11char_traitsIcEEEERNS_13basic_ostreamIcT_EES6_PKc: ## @_ZNSt3__1lsINS_11char_traitsIcEEEERNS_13basic_ostreamIcT_EES6_PKc
	.cfi_startproc
## %bb.0:
	push	rbp
	.cfi_def_cfa_offset 16
	.cfi_offset rbp, -16
	mov	rbp, rsp
	.cfi_def_cfa_register rbp
	sub	rsp, 32
	mov	qword ptr [rbp - 8], rdi
	mov	qword ptr [rbp - 16], rsi
	mov	rdi, qword ptr [rbp - 8]
	mov	rsi, qword ptr [rbp - 16]
	mov	rax, qword ptr [rbp - 16]
	mov	qword ptr [rbp - 24], rdi ## 8-byte Spill
	mov	rdi, rax
	mov	qword ptr [rbp - 32], rsi ## 8-byte Spill
	call	__ZNSt3__111char_traitsIcE6lengthEPKc
	mov	rdi, qword ptr [rbp - 24] ## 8-byte Reload
	mov	rsi, qword ptr [rbp - 32] ## 8-byte Reload
	mov	rdx, rax
	call	__ZNSt3__124__put_character_sequenceIcNS_11char_traitsIcEEEERNS_13basic_ostreamIT_T0_EES7_PKS4_m
	add	rsp, 32
	pop	rbp
	ret
	.cfi_endproc
                                        ## -- End function
	.p2align	4, 0x90         ## -- Begin function _ZNSt3__113basic_ostreamIcNS_11char_traitsIcEEElsEPFRS3_S4_E
__ZNSt3__113basic_ostreamIcNS_11char_traitsIcEEElsEPFRS3_S4_E: ## @_ZNSt3__113basic_ostreamIcNS_11char_traitsIcEEElsEPFRS3_S4_E
	.cfi_startproc
## %bb.0:
	push	rbp
	.cfi_def_cfa_offset 16
	.cfi_offset rbp, -16
	mov	rbp, rsp
	.cfi_def_cfa_register rbp
	sub	rsp, 16
	mov	qword ptr [rbp - 8], rdi
	mov	qword ptr [rbp - 16], rsi
	mov	rdi, qword ptr [rbp - 8]
	call	qword ptr [rbp - 16]
	add	rsp, 16
	pop	rbp
	ret
	.cfi_endproc
                                        ## -- End function
	.p2align	4, 0x90         ## -- Begin function _ZNSt3__1L4endlIcNS_11char_traitsIcEEEERNS_13basic_ostreamIT_T0_EES7_
__ZNSt3__1L4endlIcNS_11char_traitsIcEEEERNS_13basic_ostreamIT_T0_EES7_: ## @_ZNSt3__1L4endlIcNS_11char_traitsIcEEEERNS_13basic_ostreamIT_T0_EES7_
	.cfi_startproc
## %bb.0:
	push	rbp
	.cfi_def_cfa_offset 16
	.cfi_offset rbp, -16
	mov	rbp, rsp
	.cfi_def_cfa_register rbp
	sub	rsp, 32
	mov	qword ptr [rbp - 8], rdi
	mov	rdi, qword ptr [rbp - 8]
	mov	rax, qword ptr [rbp - 8]
	mov	rcx, qword ptr [rax]
	mov	rcx, qword ptr [rcx - 24]
	add	rax, rcx
	mov	qword ptr [rbp - 16], rdi ## 8-byte Spill
	mov	rdi, rax
	mov	esi, 10
	call	__ZNKSt3__19basic_iosIcNS_11char_traitsIcEEE5widenEc
	mov	rdi, qword ptr [rbp - 16] ## 8-byte Reload
	movsx	esi, al
	call	__ZNSt3__113basic_ostreamIcNS_11char_traitsIcEEE3putEc
	mov	rdi, qword ptr [rbp - 8]
	mov	qword ptr [rbp - 24], rax ## 8-byte Spill
	call	__ZNSt3__113basic_ostreamIcNS_11char_traitsIcEEE5flushEv
	mov	rcx, qword ptr [rbp - 8]
	mov	qword ptr [rbp - 32], rax ## 8-byte Spill
	mov	rax, rcx
	add	rsp, 32
	pop	rbp
	ret
	.cfi_endproc
                                        ## -- End function
	.globl	__ZN10Reltt_InfoC1Ev    ## -- Begin function _ZN10Reltt_InfoC1Ev
	.weak_def_can_be_hidden	__ZN10Reltt_InfoC1Ev
	.p2align	4, 0x90
__ZN10Reltt_InfoC1Ev:                   ## @_ZN10Reltt_InfoC1Ev
	.cfi_startproc
## %bb.0:
	push	rbp
	.cfi_def_cfa_offset 16
	.cfi_offset rbp, -16
	mov	rbp, rsp
	.cfi_def_cfa_register rbp
	sub	rsp, 16
	mov	qword ptr [rbp - 8], rdi
	mov	rdi, qword ptr [rbp - 8]
	call	__ZN10Reltt_InfoC2Ev
	add	rsp, 16
	pop	rbp
	ret
	.cfi_endproc
                                        ## -- End function
	.globl	__ZN10Reltt_InfoD1Ev    ## -- Begin function _ZN10Reltt_InfoD1Ev
	.weak_def_can_be_hidden	__ZN10Reltt_InfoD1Ev
	.p2align	4, 0x90
__ZN10Reltt_InfoD1Ev:                   ## @_ZN10Reltt_InfoD1Ev
	.cfi_startproc
## %bb.0:
	push	rbp
	.cfi_def_cfa_offset 16
	.cfi_offset rbp, -16
	mov	rbp, rsp
	.cfi_def_cfa_register rbp
	sub	rsp, 16
	mov	qword ptr [rbp - 8], rdi
	mov	rdi, qword ptr [rbp - 8]
	call	__ZN10Reltt_InfoD2Ev
	add	rsp, 16
	pop	rbp
	ret
	.cfi_endproc
                                        ## -- End function
	.p2align	4, 0x90         ## -- Begin function _ZNSt3__112basic_stringIcNS_11char_traitsIcEENS_9allocatorIcEEEC1IDnEEPKc
__ZNSt3__112basic_stringIcNS_11char_traitsIcEENS_9allocatorIcEEEC1IDnEEPKc: ## @_ZNSt3__112basic_stringIcNS_11char_traitsIcEENS_9allocatorIcEEEC1IDnEEPKc
	.cfi_startproc
## %bb.0:
	push	rbp
	.cfi_def_cfa_offset 16
	.cfi_offset rbp, -16
	mov	rbp, rsp
	.cfi_def_cfa_register rbp
	sub	rsp, 16
	mov	qword ptr [rbp - 8], rdi
	mov	qword ptr [rbp - 16], rsi
	mov	rdi, qword ptr [rbp - 8]
	mov	rsi, qword ptr [rbp - 16]
	call	__ZNSt3__112basic_stringIcNS_11char_traitsIcEENS_9allocatorIcEEEC2IDnEEPKc
	add	rsp, 16
	pop	rbp
	ret
	.cfi_endproc
                                        ## -- End function
	.globl	__ZN9Reltt_INTC1Ev      ## -- Begin function _ZN9Reltt_INTC1Ev
	.weak_def_can_be_hidden	__ZN9Reltt_INTC1Ev
	.p2align	4, 0x90
__ZN9Reltt_INTC1Ev:                     ## @_ZN9Reltt_INTC1Ev
	.cfi_startproc
## %bb.0:
	push	rbp
	.cfi_def_cfa_offset 16
	.cfi_offset rbp, -16
	mov	rbp, rsp
	.cfi_def_cfa_register rbp
	sub	rsp, 16
	mov	qword ptr [rbp - 8], rdi
	mov	rdi, qword ptr [rbp - 8]
	call	__ZN9Reltt_INTC2Ev
	add	rsp, 16
	pop	rbp
	ret
	.cfi_endproc
                                        ## -- End function
	.p2align	4, 0x90         ## -- Begin function _ZNSt3__1L7getlineIcNS_11char_traitsIcEENS_9allocatorIcEEEERNS_13basic_istreamIT_T0_EES9_RNS_12basic_stringIS6_S7_T1_EE
__ZNSt3__1L7getlineIcNS_11char_traitsIcEENS_9allocatorIcEEEERNS_13basic_istreamIT_T0_EES9_RNS_12basic_stringIS6_S7_T1_EE: ## @_ZNSt3__1L7getlineIcNS_11char_traitsIcEENS_9allocatorIcEEEERNS_13basic_istreamIT_T0_EES9_RNS_12basic_stringIS6_S7_T1_EE
	.cfi_startproc
## %bb.0:
	push	rbp
	.cfi_def_cfa_offset 16
	.cfi_offset rbp, -16
	mov	rbp, rsp
	.cfi_def_cfa_register rbp
	sub	rsp, 32
	mov	qword ptr [rbp - 8], rdi
	mov	qword ptr [rbp - 16], rsi
	mov	rdi, qword ptr [rbp - 8]
	mov	rsi, qword ptr [rbp - 16]
	mov	rax, qword ptr [rbp - 8]
	mov	rcx, qword ptr [rax]
	mov	rcx, qword ptr [rcx - 24]
	add	rax, rcx
	mov	qword ptr [rbp - 24], rdi ## 8-byte Spill
	mov	rdi, rax
	mov	edx, 10
	mov	qword ptr [rbp - 32], rsi ## 8-byte Spill
	mov	esi, edx
	call	__ZNKSt3__19basic_iosIcNS_11char_traitsIcEEE5widenEc
	mov	rdi, qword ptr [rbp - 24] ## 8-byte Reload
	mov	rsi, qword ptr [rbp - 32] ## 8-byte Reload
	movsx	edx, al
	call	__ZNSt3__17getlineIcNS_11char_traitsIcEENS_9allocatorIcEEEERNS_13basic_istreamIT_T0_EES9_RNS_12basic_stringIS6_S7_T1_EES6_
	add	rsp, 32
	pop	rbp
	ret
	.cfi_endproc
                                        ## -- End function
	.p2align	4, 0x90         ## -- Begin function _ZNKSt3__19basic_iosIcNS_11char_traitsIcEEEcvbEv
__ZNKSt3__19basic_iosIcNS_11char_traitsIcEEEcvbEv: ## @_ZNKSt3__19basic_iosIcNS_11char_traitsIcEEEcvbEv
	.cfi_startproc
## %bb.0:
	push	rbp
	.cfi_def_cfa_offset 16
	.cfi_offset rbp, -16
	mov	rbp, rsp
	.cfi_def_cfa_register rbp
	sub	rsp, 16
	mov	qword ptr [rbp - 8], rdi
	mov	rdi, qword ptr [rbp - 8]
	call	__ZNKSt3__19basic_iosIcNS_11char_traitsIcEEE4failEv
	xor	al, -1
	and	al, 1
	movzx	eax, al
	add	rsp, 16
	pop	rbp
	ret
	.cfi_endproc
                                        ## -- End function
	.p2align	4, 0x90         ## -- Begin function _ZNSt3__16vectorINS_12basic_stringIcNS_11char_traitsIcEENS_9allocatorIcEEEENS4_IS6_EEEC1Ev
__ZNSt3__16vectorINS_12basic_stringIcNS_11char_traitsIcEENS_9allocatorIcEEEENS4_IS6_EEEC1Ev: ## @_ZNSt3__16vectorINS_12basic_stringIcNS_11char_traitsIcEENS_9allocatorIcEEEENS4_IS6_EEEC1Ev
	.cfi_startproc
## %bb.0:
	push	rbp
	.cfi_def_cfa_offset 16
	.cfi_offset rbp, -16
	mov	rbp, rsp
	.cfi_def_cfa_register rbp
	sub	rsp, 16
	mov	qword ptr [rbp - 8], rdi
	mov	rdi, qword ptr [rbp - 8]
	call	__ZNSt3__16vectorINS_12basic_stringIcNS_11char_traitsIcEENS_9allocatorIcEEEENS4_IS6_EEEC2Ev
	add	rsp, 16
	pop	rbp
	ret
	.cfi_endproc
                                        ## -- End function
	.p2align	4, 0x90         ## -- Begin function _ZNSt3__112basic_stringIcNS_11char_traitsIcEENS_9allocatorIcEEE6appendERKS5_
__ZNSt3__112basic_stringIcNS_11char_traitsIcEENS_9allocatorIcEEE6appendERKS5_: ## @_ZNSt3__112basic_stringIcNS_11char_traitsIcEENS_9allocatorIcEEE6appendERKS5_
	.cfi_startproc
## %bb.0:
	push	rbp
	.cfi_def_cfa_offset 16
	.cfi_offset rbp, -16
	mov	rbp, rsp
	.cfi_def_cfa_register rbp
	sub	rsp, 32
	mov	qword ptr [rbp - 8], rdi
	mov	qword ptr [rbp - 16], rsi
	mov	rdi, qword ptr [rbp - 8]
	mov	rax, qword ptr [rbp - 16]
	mov	qword ptr [rbp - 24], rdi ## 8-byte Spill
	mov	rdi, rax
	call	__ZNKSt3__112basic_stringIcNS_11char_traitsIcEENS_9allocatorIcEEE4dataEv
	mov	rdi, qword ptr [rbp - 16]
	mov	qword ptr [rbp - 32], rax ## 8-byte Spill
	call	__ZNKSt3__112basic_stringIcNS_11char_traitsIcEENS_9allocatorIcEEE4sizeEv
	mov	rdi, qword ptr [rbp - 24] ## 8-byte Reload
	mov	rsi, qword ptr [rbp - 32] ## 8-byte Reload
	mov	rdx, rax
	call	__ZNSt3__112basic_stringIcNS_11char_traitsIcEENS_9allocatorIcEEE6appendEPKcm
	add	rsp, 32
	pop	rbp
	ret
	.cfi_endproc
                                        ## -- End function
	.globl	__ZN9Reltt_INT9AddVectorEiNSt3__16vectorINS0_12basic_stringIcNS0_11char_traitsIcEENS0_9allocatorIcEEEENS5_IS7_EEEE ## -- Begin function _ZN9Reltt_INT9AddVectorEiNSt3__16vectorINS0_12basic_stringIcNS0_11char_traitsIcEENS0_9allocatorIcEEEENS5_IS7_EEEE
	.weak_definition	__ZN9Reltt_INT9AddVectorEiNSt3__16vectorINS0_12basic_stringIcNS0_11char_traitsIcEENS0_9allocatorIcEEEENS5_IS7_EEEE
	.p2align	4, 0x90
__ZN9Reltt_INT9AddVectorEiNSt3__16vectorINS0_12basic_stringIcNS0_11char_traitsIcEENS0_9allocatorIcEEEENS5_IS7_EEEE: ## @_ZN9Reltt_INT9AddVectorEiNSt3__16vectorINS0_12basic_stringIcNS0_11char_traitsIcEENS0_9allocatorIcEEEENS5_IS7_EEEE
Lfunc_begin1:
	.cfi_startproc
	.cfi_personality 155, ___gxx_personality_v0
	.cfi_lsda 16, Lexception1
## %bb.0:
	push	rbp
	.cfi_def_cfa_offset 16
	.cfi_offset rbp, -16
	mov	rbp, rsp
	.cfi_def_cfa_register rbp
	sub	rsp, 80
	mov	qword ptr [rbp - 8], rdi
	mov	dword ptr [rbp - 12], esi
	mov	rax, qword ptr [rbp - 8]
	mov	ecx, dword ptr [rbp - 12]
	add	ecx, dword ptr [rax + 368]
	mov	dword ptr [rax + 368], ecx
	mov	dword ptr [rbp - 16], 0
	mov	qword ptr [rbp - 64], rdx ## 8-byte Spill
	mov	qword ptr [rbp - 72], rax ## 8-byte Spill
LBB12_1:                                ## =>This Inner Loop Header: Depth=1
	mov	eax, dword ptr [rbp - 16]
	cmp	eax, dword ptr [rbp - 12]
	jge	LBB12_6
## %bb.2:                               ##   in Loop: Header=BB12_1 Depth=1
	movsxd	rsi, dword ptr [rbp - 16]
	mov	rdi, qword ptr [rbp - 64] ## 8-byte Reload
	call	__ZNSt3__16vectorINS_12basic_stringIcNS_11char_traitsIcEENS_9allocatorIcEEEENS4_IS6_EEE2atEm
	lea	rcx, [rbp - 40]
	mov	rdi, rcx
	mov	rsi, rax
	mov	qword ptr [rbp - 80], rcx ## 8-byte Spill
	call	__ZNSt3__112basic_stringIcNS_11char_traitsIcEENS_9allocatorIcEEEC1ERKS5_
	mov	rax, qword ptr [rbp - 72] ## 8-byte Reload
	add	rax, 400
Ltmp85:
	mov	rdi, rax
	mov	rsi, qword ptr [rbp - 80] ## 8-byte Reload
	call	__ZNSt3__16vectorINS_12basic_stringIcNS_11char_traitsIcEENS_9allocatorIcEEEENS4_IS6_EEE9push_backERKS6_
Ltmp86:
	jmp	LBB12_3
LBB12_3:                                ##   in Loop: Header=BB12_1 Depth=1
	lea	rdi, [rbp - 40]
	call	__ZNSt3__112basic_stringIcNS_11char_traitsIcEENS_9allocatorIcEEED1Ev
## %bb.4:                               ##   in Loop: Header=BB12_1 Depth=1
	mov	eax, dword ptr [rbp - 16]
	add	eax, 1
	mov	dword ptr [rbp - 16], eax
	jmp	LBB12_1
LBB12_5:
Ltmp87:
                                        ## kill: def $edx killed $edx killed $rdx
	mov	qword ptr [rbp - 48], rax
	mov	dword ptr [rbp - 52], edx
	lea	rdi, [rbp - 40]
	call	__ZNSt3__112basic_stringIcNS_11char_traitsIcEENS_9allocatorIcEEED1Ev
	jmp	LBB12_7
LBB12_6:
	add	rsp, 80
	pop	rbp
	ret
LBB12_7:
	mov	rdi, qword ptr [rbp - 48]
	call	__Unwind_Resume
	ud2
Lfunc_end1:
	.cfi_endproc
	.section	__TEXT,__gcc_except_tab
	.p2align	2
GCC_except_table12:
Lexception1:
	.byte	255                     ## @LPStart Encoding = omit
	.byte	255                     ## @TType Encoding = omit
	.byte	1                       ## Call site Encoding = uleb128
	.uleb128 Lcst_end1-Lcst_begin1
Lcst_begin1:
	.uleb128 Lfunc_begin1-Lfunc_begin1 ## >> Call Site 1 <<
	.uleb128 Ltmp85-Lfunc_begin1    ##   Call between Lfunc_begin1 and Ltmp85
	.byte	0                       ##     has no landing pad
	.byte	0                       ##   On action: cleanup
	.uleb128 Ltmp85-Lfunc_begin1    ## >> Call Site 2 <<
	.uleb128 Ltmp86-Ltmp85          ##   Call between Ltmp85 and Ltmp86
	.uleb128 Ltmp87-Lfunc_begin1    ##     jumps to Ltmp87
	.byte	0                       ##   On action: cleanup
	.uleb128 Ltmp86-Lfunc_begin1    ## >> Call Site 3 <<
	.uleb128 Lfunc_end1-Ltmp86      ##   Call between Ltmp86 and Lfunc_end1
	.byte	0                       ##     has no landing pad
	.byte	0                       ##   On action: cleanup
Lcst_end1:
	.p2align	2
                                        ## -- End function
	.section	__TEXT,__text,regular,pure_instructions
	.p2align	4, 0x90         ## -- Begin function _ZNKSt3__16vectorINS_12basic_stringIcNS_11char_traitsIcEENS_9allocatorIcEEEENS4_IS6_EEE4sizeEv
__ZNKSt3__16vectorINS_12basic_stringIcNS_11char_traitsIcEENS_9allocatorIcEEEENS4_IS6_EEE4sizeEv: ## @_ZNKSt3__16vectorINS_12basic_stringIcNS_11char_traitsIcEENS_9allocatorIcEEEENS4_IS6_EEE4sizeEv
	.cfi_startproc
## %bb.0:
	push	rbp
	.cfi_def_cfa_offset 16
	.cfi_offset rbp, -16
	mov	rbp, rsp
	.cfi_def_cfa_register rbp
	mov	qword ptr [rbp - 8], rdi
	mov	rax, qword ptr [rbp - 8]
	mov	rcx, qword ptr [rax + 8]
	mov	rax, qword ptr [rax]
	sub	rcx, rax
	mov	rax, rcx
	cqo
	mov	ecx, 24
	idiv	rcx
	pop	rbp
	ret
	.cfi_endproc
                                        ## -- End function
	.globl	__ZNSt3__16vectorINS_12basic_stringIcNS_11char_traitsIcEENS_9allocatorIcEEEENS4_IS6_EEEC1ERKS8_ ## -- Begin function _ZNSt3__16vectorINS_12basic_stringIcNS_11char_traitsIcEENS_9allocatorIcEEEENS4_IS6_EEEC1ERKS8_
	.weak_def_can_be_hidden	__ZNSt3__16vectorINS_12basic_stringIcNS_11char_traitsIcEENS_9allocatorIcEEEENS4_IS6_EEEC1ERKS8_
	.p2align	4, 0x90
__ZNSt3__16vectorINS_12basic_stringIcNS_11char_traitsIcEENS_9allocatorIcEEEENS4_IS6_EEEC1ERKS8_: ## @_ZNSt3__16vectorINS_12basic_stringIcNS_11char_traitsIcEENS_9allocatorIcEEEENS4_IS6_EEEC1ERKS8_
	.cfi_startproc
## %bb.0:
	push	rbp
	.cfi_def_cfa_offset 16
	.cfi_offset rbp, -16
	mov	rbp, rsp
	.cfi_def_cfa_register rbp
	sub	rsp, 16
	mov	qword ptr [rbp - 8], rdi
	mov	qword ptr [rbp - 16], rsi
	mov	rdi, qword ptr [rbp - 8]
	mov	rsi, qword ptr [rbp - 16]
	call	__ZNSt3__16vectorINS_12basic_stringIcNS_11char_traitsIcEENS_9allocatorIcEEEENS4_IS6_EEEC2ERKS8_
	add	rsp, 16
	pop	rbp
	ret
	.cfi_endproc
                                        ## -- End function
	.p2align	4, 0x90         ## -- Begin function _ZNSt3__16vectorINS_12basic_stringIcNS_11char_traitsIcEENS_9allocatorIcEEEENS4_IS6_EEED1Ev
__ZNSt3__16vectorINS_12basic_stringIcNS_11char_traitsIcEENS_9allocatorIcEEEENS4_IS6_EEED1Ev: ## @_ZNSt3__16vectorINS_12basic_stringIcNS_11char_traitsIcEENS_9allocatorIcEEEENS4_IS6_EEED1Ev
	.cfi_startproc
## %bb.0:
	push	rbp
	.cfi_def_cfa_offset 16
	.cfi_offset rbp, -16
	mov	rbp, rsp
	.cfi_def_cfa_register rbp
	sub	rsp, 16
	mov	qword ptr [rbp - 8], rdi
	mov	rdi, qword ptr [rbp - 8]
	call	__ZNSt3__16vectorINS_12basic_stringIcNS_11char_traitsIcEENS_9allocatorIcEEEENS4_IS6_EEED2Ev
	add	rsp, 16
	pop	rbp
	ret
	.cfi_endproc
                                        ## -- End function
	.p2align	4, 0x90         ## -- Begin function _ZNSt3__112basic_stringIcNS_11char_traitsIcEENS_9allocatorIcEEEaSEPKc
__ZNSt3__112basic_stringIcNS_11char_traitsIcEENS_9allocatorIcEEEaSEPKc: ## @_ZNSt3__112basic_stringIcNS_11char_traitsIcEENS_9allocatorIcEEEaSEPKc
	.cfi_startproc
## %bb.0:
	push	rbp
	.cfi_def_cfa_offset 16
	.cfi_offset rbp, -16
	mov	rbp, rsp
	.cfi_def_cfa_register rbp
	sub	rsp, 16
	mov	qword ptr [rbp - 8], rdi
	mov	qword ptr [rbp - 16], rsi
	mov	rdi, qword ptr [rbp - 8]
	mov	rsi, qword ptr [rbp - 16]
	call	__ZNSt3__112basic_stringIcNS_11char_traitsIcEENS_9allocatorIcEEE6assignEPKc
	add	rsp, 16
	pop	rbp
	ret
	.cfi_endproc
                                        ## -- End function
	.globl	__ZN9Reltt_INTD1Ev      ## -- Begin function _ZN9Reltt_INTD1Ev
	.weak_def_can_be_hidden	__ZN9Reltt_INTD1Ev
	.p2align	4, 0x90
__ZN9Reltt_INTD1Ev:                     ## @_ZN9Reltt_INTD1Ev
	.cfi_startproc
## %bb.0:
	push	rbp
	.cfi_def_cfa_offset 16
	.cfi_offset rbp, -16
	mov	rbp, rsp
	.cfi_def_cfa_register rbp
	sub	rsp, 16
	mov	qword ptr [rbp - 8], rdi
	mov	rdi, qword ptr [rbp - 8]
	call	__ZN9Reltt_INTD2Ev
	add	rsp, 16
	pop	rbp
	ret
	.cfi_endproc
                                        ## -- End function
	.private_extern	___clang_call_terminate ## -- Begin function __clang_call_terminate
	.globl	___clang_call_terminate
	.weak_definition	___clang_call_terminate
	.p2align	4, 0x90
___clang_call_terminate:                ## @__clang_call_terminate
## %bb.0:
	push	rax
	call	___cxa_begin_catch
	mov	qword ptr [rsp], rax    ## 8-byte Spill
	call	__ZSt9terminatev
                                        ## -- End function
	.globl	__ZN10Reltt_InfoC2Ev    ## -- Begin function _ZN10Reltt_InfoC2Ev
	.weak_def_can_be_hidden	__ZN10Reltt_InfoC2Ev
	.p2align	4, 0x90
__ZN10Reltt_InfoC2Ev:                   ## @_ZN10Reltt_InfoC2Ev
Lfunc_begin2:
	.cfi_startproc
	.cfi_personality 155, ___gxx_personality_v0
	.cfi_lsda 16, Lexception2
## %bb.0:
	push	rbp
	.cfi_def_cfa_offset 16
	.cfi_offset rbp, -16
	mov	rbp, rsp
	.cfi_def_cfa_register rbp
	sub	rsp, 112
	mov	qword ptr [rbp - 8], rdi
	mov	rax, qword ptr [rbp - 8]
	mov	rcx, rax
	lea	rsi, [rip + L_.str.12]
	mov	rdi, rax
	mov	qword ptr [rbp - 32], rax ## 8-byte Spill
	mov	qword ptr [rbp - 40], rcx ## 8-byte Spill
	call	__ZNSt3__112basic_stringIcNS_11char_traitsIcEENS_9allocatorIcEEEC1IDnEEPKc
	mov	rax, qword ptr [rbp - 32] ## 8-byte Reload
	add	rax, 24
Ltmp88:
	lea	rsi, [rip + L_.str.13]
	mov	rdi, rax
	mov	qword ptr [rbp - 48], rax ## 8-byte Spill
	call	__ZNSt3__112basic_stringIcNS_11char_traitsIcEENS_9allocatorIcEEEC1IDnEEPKc
Ltmp89:
	jmp	LBB19_1
LBB19_1:
Ltmp91:
	mov	rdi, qword ptr [rip + __ZNSt3__14coutE@GOTPCREL]
	lea	rsi, [rip + L_.str.14]
	call	__ZNSt3__1lsINS_11char_traitsIcEEEERNS_13basic_ostreamIcT_EES6_PKc
Ltmp92:
	mov	qword ptr [rbp - 56], rax ## 8-byte Spill
	jmp	LBB19_2
LBB19_2:
Ltmp93:
	mov	rdi, qword ptr [rbp - 56] ## 8-byte Reload
	mov	rsi, qword ptr [rbp - 40] ## 8-byte Reload
	call	__ZNSt3__1lsIcNS_11char_traitsIcEENS_9allocatorIcEEEERNS_13basic_ostreamIT_T0_EES9_RKNS_12basic_stringIS6_S7_T1_EE
Ltmp94:
	mov	qword ptr [rbp - 64], rax ## 8-byte Spill
	jmp	LBB19_3
LBB19_3:
Ltmp95:
	lea	rsi, [rip + L_.str.15]
	mov	rdi, qword ptr [rbp - 64] ## 8-byte Reload
	call	__ZNSt3__1lsINS_11char_traitsIcEEEERNS_13basic_ostreamIcT_EES6_PKc
Ltmp96:
	mov	qword ptr [rbp - 72], rax ## 8-byte Spill
	jmp	LBB19_4
LBB19_4:
Ltmp97:
	lea	rsi, [rip + L_.str.16]
	mov	rdi, qword ptr [rbp - 72] ## 8-byte Reload
	call	__ZNSt3__1lsINS_11char_traitsIcEEEERNS_13basic_ostreamIcT_EES6_PKc
Ltmp98:
	mov	qword ptr [rbp - 80], rax ## 8-byte Spill
	jmp	LBB19_5
LBB19_5:
Ltmp99:
	lea	rsi, [rip + L_.str.17]
	mov	rdi, qword ptr [rbp - 80] ## 8-byte Reload
	call	__ZNSt3__1lsINS_11char_traitsIcEEEERNS_13basic_ostreamIcT_EES6_PKc
Ltmp100:
	mov	qword ptr [rbp - 88], rax ## 8-byte Spill
	jmp	LBB19_6
LBB19_6:
	mov	rax, qword ptr [rbp - 40] ## 8-byte Reload
	add	rax, 24
Ltmp101:
	mov	rdi, qword ptr [rbp - 88] ## 8-byte Reload
	mov	rsi, rax
	call	__ZNSt3__1lsIcNS_11char_traitsIcEENS_9allocatorIcEEEERNS_13basic_ostreamIT_T0_EES9_RKNS_12basic_stringIS6_S7_T1_EE
Ltmp102:
	mov	qword ptr [rbp - 96], rax ## 8-byte Spill
	jmp	LBB19_7
LBB19_7:
Ltmp103:
	lea	rsi, [rip + L_.str.6]
	mov	rdi, qword ptr [rbp - 96] ## 8-byte Reload
	call	__ZNSt3__1lsINS_11char_traitsIcEEEERNS_13basic_ostreamIcT_EES6_PKc
Ltmp104:
	mov	qword ptr [rbp - 104], rax ## 8-byte Spill
	jmp	LBB19_8
LBB19_8:
Ltmp105:
	lea	rsi, [rip + __ZNSt3__1L4endlIcNS_11char_traitsIcEEEERNS_13basic_ostreamIT_T0_EES7_]
	mov	rdi, qword ptr [rbp - 104] ## 8-byte Reload
	call	__ZNSt3__113basic_ostreamIcNS_11char_traitsIcEEElsEPFRS3_S4_E
Ltmp106:
	jmp	LBB19_9
LBB19_9:
	add	rsp, 112
	pop	rbp
	ret
LBB19_10:
Ltmp90:
                                        ## kill: def $edx killed $edx killed $rdx
	mov	qword ptr [rbp - 16], rax
	mov	dword ptr [rbp - 20], edx
	jmp	LBB19_12
LBB19_11:
Ltmp107:
                                        ## kill: def $edx killed $edx killed $rdx
	mov	qword ptr [rbp - 16], rax
	mov	dword ptr [rbp - 20], edx
	mov	rdi, qword ptr [rbp - 48] ## 8-byte Reload
	call	__ZNSt3__112basic_stringIcNS_11char_traitsIcEENS_9allocatorIcEEED1Ev
LBB19_12:
	mov	rdi, qword ptr [rbp - 32] ## 8-byte Reload
	call	__ZNSt3__112basic_stringIcNS_11char_traitsIcEENS_9allocatorIcEEED1Ev
## %bb.13:
	mov	rdi, qword ptr [rbp - 16]
	call	__Unwind_Resume
	ud2
Lfunc_end2:
	.cfi_endproc
	.section	__TEXT,__gcc_except_tab
	.p2align	2
GCC_except_table19:
Lexception2:
	.byte	255                     ## @LPStart Encoding = omit
	.byte	255                     ## @TType Encoding = omit
	.byte	1                       ## Call site Encoding = uleb128
	.uleb128 Lcst_end2-Lcst_begin2
Lcst_begin2:
	.uleb128 Lfunc_begin2-Lfunc_begin2 ## >> Call Site 1 <<
	.uleb128 Ltmp88-Lfunc_begin2    ##   Call between Lfunc_begin2 and Ltmp88
	.byte	0                       ##     has no landing pad
	.byte	0                       ##   On action: cleanup
	.uleb128 Ltmp88-Lfunc_begin2    ## >> Call Site 2 <<
	.uleb128 Ltmp89-Ltmp88          ##   Call between Ltmp88 and Ltmp89
	.uleb128 Ltmp90-Lfunc_begin2    ##     jumps to Ltmp90
	.byte	0                       ##   On action: cleanup
	.uleb128 Ltmp91-Lfunc_begin2    ## >> Call Site 3 <<
	.uleb128 Ltmp106-Ltmp91         ##   Call between Ltmp91 and Ltmp106
	.uleb128 Ltmp107-Lfunc_begin2   ##     jumps to Ltmp107
	.byte	0                       ##   On action: cleanup
	.uleb128 Ltmp106-Lfunc_begin2   ## >> Call Site 4 <<
	.uleb128 Lfunc_end2-Ltmp106     ##   Call between Ltmp106 and Lfunc_end2
	.byte	0                       ##     has no landing pad
	.byte	0                       ##   On action: cleanup
Lcst_end2:
	.p2align	2
                                        ## -- End function
	.section	__TEXT,__text,regular,pure_instructions
	.globl	__ZNSt3__1lsIcNS_11char_traitsIcEENS_9allocatorIcEEEERNS_13basic_ostreamIT_T0_EES9_RKNS_12basic_stringIS6_S7_T1_EE ## -- Begin function _ZNSt3__1lsIcNS_11char_traitsIcEENS_9allocatorIcEEEERNS_13basic_ostreamIT_T0_EES9_RKNS_12basic_stringIS6_S7_T1_EE
	.weak_definition	__ZNSt3__1lsIcNS_11char_traitsIcEENS_9allocatorIcEEEERNS_13basic_ostreamIT_T0_EES9_RKNS_12basic_stringIS6_S7_T1_EE
	.p2align	4, 0x90
__ZNSt3__1lsIcNS_11char_traitsIcEENS_9allocatorIcEEEERNS_13basic_ostreamIT_T0_EES9_RKNS_12basic_stringIS6_S7_T1_EE: ## @_ZNSt3__1lsIcNS_11char_traitsIcEENS_9allocatorIcEEEERNS_13basic_ostreamIT_T0_EES9_RKNS_12basic_stringIS6_S7_T1_EE
	.cfi_startproc
## %bb.0:
	push	rbp
	.cfi_def_cfa_offset 16
	.cfi_offset rbp, -16
	mov	rbp, rsp
	.cfi_def_cfa_register rbp
	sub	rsp, 32
	mov	qword ptr [rbp - 8], rdi
	mov	qword ptr [rbp - 16], rsi
	mov	rdi, qword ptr [rbp - 8]
	mov	rax, qword ptr [rbp - 16]
	mov	qword ptr [rbp - 24], rdi ## 8-byte Spill
	mov	rdi, rax
	call	__ZNKSt3__112basic_stringIcNS_11char_traitsIcEENS_9allocatorIcEEE4dataEv
	mov	rdi, qword ptr [rbp - 16]
	mov	qword ptr [rbp - 32], rax ## 8-byte Spill
	call	__ZNKSt3__112basic_stringIcNS_11char_traitsIcEENS_9allocatorIcEEE4sizeEv
	mov	rdi, qword ptr [rbp - 24] ## 8-byte Reload
	mov	rsi, qword ptr [rbp - 32] ## 8-byte Reload
	mov	rdx, rax
	call	__ZNSt3__124__put_character_sequenceIcNS_11char_traitsIcEEEERNS_13basic_ostreamIT_T0_EES7_PKS4_m
	add	rsp, 32
	pop	rbp
	ret
	.cfi_endproc
                                        ## -- End function
	.globl	__ZNSt3__124__put_character_sequenceIcNS_11char_traitsIcEEEERNS_13basic_ostreamIT_T0_EES7_PKS4_m ## -- Begin function _ZNSt3__124__put_character_sequenceIcNS_11char_traitsIcEEEERNS_13basic_ostreamIT_T0_EES7_PKS4_m
	.weak_definition	__ZNSt3__124__put_character_sequenceIcNS_11char_traitsIcEEEERNS_13basic_ostreamIT_T0_EES7_PKS4_m
	.p2align	4, 0x90
__ZNSt3__124__put_character_sequenceIcNS_11char_traitsIcEEEERNS_13basic_ostreamIT_T0_EES7_PKS4_m: ## @_ZNSt3__124__put_character_sequenceIcNS_11char_traitsIcEEEERNS_13basic_ostreamIT_T0_EES7_PKS4_m
Lfunc_begin3:
	.cfi_startproc
	.cfi_personality 155, ___gxx_personality_v0
	.cfi_lsda 16, Lexception3
## %bb.0:
	push	rbp
	.cfi_def_cfa_offset 16
	.cfi_offset rbp, -16
	mov	rbp, rsp
	.cfi_def_cfa_register rbp
	sub	rsp, 160
	mov	qword ptr [rbp - 8], rdi
	mov	qword ptr [rbp - 16], rsi
	mov	qword ptr [rbp - 24], rdx
	mov	rsi, qword ptr [rbp - 8]
Ltmp108:
	lea	rdi, [rbp - 40]
	call	__ZNSt3__113basic_ostreamIcNS_11char_traitsIcEEE6sentryC1ERS3_
Ltmp109:
	jmp	LBB21_1
LBB21_1:
Ltmp111:
	lea	rdi, [rbp - 40]
	call	__ZNKSt3__113basic_ostreamIcNS_11char_traitsIcEEE6sentrycvbEv
Ltmp112:
	mov	byte ptr [rbp - 73], al ## 1-byte Spill
	jmp	LBB21_2
LBB21_2:
	mov	al, byte ptr [rbp - 73] ## 1-byte Reload
	test	al, 1
	jne	LBB21_3
	jmp	LBB21_18
LBB21_3:
	mov	rsi, qword ptr [rbp - 8]
	lea	rdi, [rbp - 72]
	call	__ZNSt3__119ostreambuf_iteratorIcNS_11char_traitsIcEEEC1ERNS_13basic_ostreamIcS2_EE
	mov	rsi, qword ptr [rbp - 16]
	mov	rax, qword ptr [rbp - 8]
	mov	rcx, qword ptr [rax]
	mov	rcx, qword ptr [rcx - 24]
	add	rax, rcx
Ltmp113:
	mov	rdi, rax
	mov	qword ptr [rbp - 88], rsi ## 8-byte Spill
	call	__ZNKSt3__18ios_base5flagsEv
Ltmp114:
	mov	dword ptr [rbp - 92], eax ## 4-byte Spill
	jmp	LBB21_4
LBB21_4:
	mov	eax, dword ptr [rbp - 92] ## 4-byte Reload
	and	eax, 176
	cmp	eax, 32
	jne	LBB21_6
## %bb.5:
	mov	rax, qword ptr [rbp - 16]
	add	rax, qword ptr [rbp - 24]
	mov	qword ptr [rbp - 104], rax ## 8-byte Spill
	jmp	LBB21_7
LBB21_6:
	mov	rax, qword ptr [rbp - 16]
	mov	qword ptr [rbp - 104], rax ## 8-byte Spill
LBB21_7:
	mov	rax, qword ptr [rbp - 104] ## 8-byte Reload
	mov	rcx, qword ptr [rbp - 16]
	mov	rdx, qword ptr [rbp - 24]
	add	rcx, rdx
	mov	rdx, qword ptr [rbp - 8]
	mov	rsi, qword ptr [rdx]
	mov	rsi, qword ptr [rsi - 24]
	add	rdx, rsi
Ltmp115:
	mov	rdi, rdx
	mov	qword ptr [rbp - 112], rax ## 8-byte Spill
	mov	qword ptr [rbp - 120], rcx ## 8-byte Spill
	mov	qword ptr [rbp - 128], rdx ## 8-byte Spill
	call	__ZNKSt3__19basic_iosIcNS_11char_traitsIcEEE4fillEv
Ltmp116:
	mov	byte ptr [rbp - 129], al ## 1-byte Spill
	jmp	LBB21_8
LBB21_8:
	mov	rdi, qword ptr [rbp - 72]
Ltmp117:
	mov	al, byte ptr [rbp - 129] ## 1-byte Reload
	movsx	r9d, al
	mov	rsi, qword ptr [rbp - 88] ## 8-byte Reload
	mov	rdx, qword ptr [rbp - 112] ## 8-byte Reload
	mov	rcx, qword ptr [rbp - 120] ## 8-byte Reload
	mov	r8, qword ptr [rbp - 128] ## 8-byte Reload
	call	__ZNSt3__116__pad_and_outputIcNS_11char_traitsIcEEEENS_19ostreambuf_iteratorIT_T0_EES6_PKS4_S8_S8_RNS_8ios_baseES4_
Ltmp118:
	mov	qword ptr [rbp - 144], rax ## 8-byte Spill
	jmp	LBB21_9
LBB21_9:
	mov	rax, qword ptr [rbp - 144] ## 8-byte Reload
	mov	qword ptr [rbp - 64], rax
	lea	rdi, [rbp - 64]
	call	__ZNKSt3__119ostreambuf_iteratorIcNS_11char_traitsIcEEE6failedEv
	test	al, 1
	jne	LBB21_10
	jmp	LBB21_17
LBB21_10:
	mov	rax, qword ptr [rbp - 8]
	mov	rcx, qword ptr [rax]
	mov	rcx, qword ptr [rcx - 24]
	add	rax, rcx
Ltmp119:
	mov	esi, 5
	mov	rdi, rax
	call	__ZNSt3__19basic_iosIcNS_11char_traitsIcEEE8setstateEj
Ltmp120:
	jmp	LBB21_11
LBB21_11:
	jmp	LBB21_17
LBB21_12:
Ltmp110:
                                        ## kill: def $edx killed $edx killed $rdx
	mov	qword ptr [rbp - 48], rax
	mov	dword ptr [rbp - 52], edx
	jmp	LBB21_14
LBB21_13:
Ltmp121:
                                        ## kill: def $edx killed $edx killed $rdx
	mov	qword ptr [rbp - 48], rax
	mov	dword ptr [rbp - 52], edx
	lea	rdi, [rbp - 40]
	call	__ZNSt3__113basic_ostreamIcNS_11char_traitsIcEEE6sentryD1Ev
LBB21_14:
	mov	rdi, qword ptr [rbp - 48]
	call	___cxa_begin_catch
	mov	rcx, qword ptr [rbp - 8]
	mov	rdx, qword ptr [rcx]
	mov	rdx, qword ptr [rdx - 24]
	add	rcx, rdx
Ltmp122:
	mov	rdi, rcx
	mov	qword ptr [rbp - 152], rax ## 8-byte Spill
	call	__ZNSt3__18ios_base33__set_badbit_and_consider_rethrowEv
Ltmp123:
	jmp	LBB21_15
LBB21_15:
	call	___cxa_end_catch
LBB21_16:
	mov	rax, qword ptr [rbp - 8]
	add	rsp, 160
	pop	rbp
	ret
LBB21_17:
	jmp	LBB21_18
LBB21_18:
	lea	rdi, [rbp - 40]
	call	__ZNSt3__113basic_ostreamIcNS_11char_traitsIcEEE6sentryD1Ev
	jmp	LBB21_16
LBB21_19:
Ltmp124:
                                        ## kill: def $edx killed $edx killed $rdx
	mov	qword ptr [rbp - 48], rax
	mov	dword ptr [rbp - 52], edx
Ltmp125:
	call	___cxa_end_catch
Ltmp126:
	jmp	LBB21_20
LBB21_20:
	jmp	LBB21_21
LBB21_21:
	mov	rdi, qword ptr [rbp - 48]
	call	__Unwind_Resume
	ud2
LBB21_22:
Ltmp127:
	mov	rdi, rax
	mov	qword ptr [rbp - 160], rdx ## 8-byte Spill
	call	___clang_call_terminate
Lfunc_end3:
	.cfi_endproc
	.section	__TEXT,__gcc_except_tab
	.p2align	2
GCC_except_table21:
Lexception3:
	.byte	255                     ## @LPStart Encoding = omit
	.byte	155                     ## @TType Encoding = indirect pcrel sdata4
	.uleb128 Lttbase1-Lttbaseref1
Lttbaseref1:
	.byte	1                       ## Call site Encoding = uleb128
	.uleb128 Lcst_end3-Lcst_begin3
Lcst_begin3:
	.uleb128 Ltmp108-Lfunc_begin3   ## >> Call Site 1 <<
	.uleb128 Ltmp109-Ltmp108        ##   Call between Ltmp108 and Ltmp109
	.uleb128 Ltmp110-Lfunc_begin3   ##     jumps to Ltmp110
	.byte	1                       ##   On action: 1
	.uleb128 Ltmp111-Lfunc_begin3   ## >> Call Site 2 <<
	.uleb128 Ltmp120-Ltmp111        ##   Call between Ltmp111 and Ltmp120
	.uleb128 Ltmp121-Lfunc_begin3   ##     jumps to Ltmp121
	.byte	1                       ##   On action: 1
	.uleb128 Ltmp120-Lfunc_begin3   ## >> Call Site 3 <<
	.uleb128 Ltmp122-Ltmp120        ##   Call between Ltmp120 and Ltmp122
	.byte	0                       ##     has no landing pad
	.byte	0                       ##   On action: cleanup
	.uleb128 Ltmp122-Lfunc_begin3   ## >> Call Site 4 <<
	.uleb128 Ltmp123-Ltmp122        ##   Call between Ltmp122 and Ltmp123
	.uleb128 Ltmp124-Lfunc_begin3   ##     jumps to Ltmp124
	.byte	0                       ##   On action: cleanup
	.uleb128 Ltmp123-Lfunc_begin3   ## >> Call Site 5 <<
	.uleb128 Ltmp125-Ltmp123        ##   Call between Ltmp123 and Ltmp125
	.byte	0                       ##     has no landing pad
	.byte	0                       ##   On action: cleanup
	.uleb128 Ltmp125-Lfunc_begin3   ## >> Call Site 6 <<
	.uleb128 Ltmp126-Ltmp125        ##   Call between Ltmp125 and Ltmp126
	.uleb128 Ltmp127-Lfunc_begin3   ##     jumps to Ltmp127
	.byte	1                       ##   On action: 1
	.uleb128 Ltmp126-Lfunc_begin3   ## >> Call Site 7 <<
	.uleb128 Lfunc_end3-Ltmp126     ##   Call between Ltmp126 and Lfunc_end3
	.byte	0                       ##     has no landing pad
	.byte	0                       ##   On action: cleanup
Lcst_end3:
	.byte	1                       ## >> Action Record 1 <<
                                        ##   Catch TypeInfo 1
	.byte	0                       ##   No further actions
	.p2align	2
                                        ## >> Catch TypeInfos <<
	.long	0                       ## TypeInfo 1
Lttbase1:
	.p2align	2
                                        ## -- End function
	.section	__TEXT,__text,regular,pure_instructions
	.p2align	4, 0x90         ## -- Begin function _ZNKSt3__112basic_stringIcNS_11char_traitsIcEENS_9allocatorIcEEE4dataEv
__ZNKSt3__112basic_stringIcNS_11char_traitsIcEENS_9allocatorIcEEE4dataEv: ## @_ZNKSt3__112basic_stringIcNS_11char_traitsIcEENS_9allocatorIcEEE4dataEv
	.cfi_startproc
## %bb.0:
	push	rbp
	.cfi_def_cfa_offset 16
	.cfi_offset rbp, -16
	mov	rbp, rsp
	.cfi_def_cfa_register rbp
	sub	rsp, 16
	mov	qword ptr [rbp - 8], rdi
	mov	rdi, qword ptr [rbp - 8]
	call	__ZNKSt3__112basic_stringIcNS_11char_traitsIcEENS_9allocatorIcEEE13__get_pointerEv
	mov	rdi, rax
	call	__ZNSt3__1L16__to_raw_pointerIKcEEPT_S3_
	add	rsp, 16
	pop	rbp
	ret
	.cfi_endproc
                                        ## -- End function
	.p2align	4, 0x90         ## -- Begin function _ZNKSt3__112basic_stringIcNS_11char_traitsIcEENS_9allocatorIcEEE4sizeEv
__ZNKSt3__112basic_stringIcNS_11char_traitsIcEENS_9allocatorIcEEE4sizeEv: ## @_ZNKSt3__112basic_stringIcNS_11char_traitsIcEENS_9allocatorIcEEE4sizeEv
	.cfi_startproc
## %bb.0:
	push	rbp
	.cfi_def_cfa_offset 16
	.cfi_offset rbp, -16
	mov	rbp, rsp
	.cfi_def_cfa_register rbp
	sub	rsp, 32
	mov	qword ptr [rbp - 8], rdi
	mov	rax, qword ptr [rbp - 8]
	mov	rdi, rax
	mov	qword ptr [rbp - 16], rax ## 8-byte Spill
	call	__ZNKSt3__112basic_stringIcNS_11char_traitsIcEENS_9allocatorIcEEE9__is_longEv
	test	al, 1
	jne	LBB23_1
	jmp	LBB23_2
LBB23_1:
	mov	rdi, qword ptr [rbp - 16] ## 8-byte Reload
	call	__ZNKSt3__112basic_stringIcNS_11char_traitsIcEENS_9allocatorIcEEE15__get_long_sizeEv
	mov	qword ptr [rbp - 24], rax ## 8-byte Spill
	jmp	LBB23_3
LBB23_2:
	mov	rdi, qword ptr [rbp - 16] ## 8-byte Reload
	call	__ZNKSt3__112basic_stringIcNS_11char_traitsIcEENS_9allocatorIcEEE16__get_short_sizeEv
	mov	qword ptr [rbp - 24], rax ## 8-byte Spill
LBB23_3:
	mov	rax, qword ptr [rbp - 24] ## 8-byte Reload
	add	rsp, 32
	pop	rbp
	ret
	.cfi_endproc
                                        ## -- End function
	.p2align	4, 0x90         ## -- Begin function _ZNKSt3__113basic_ostreamIcNS_11char_traitsIcEEE6sentrycvbEv
__ZNKSt3__113basic_ostreamIcNS_11char_traitsIcEEE6sentrycvbEv: ## @_ZNKSt3__113basic_ostreamIcNS_11char_traitsIcEEE6sentrycvbEv
	.cfi_startproc
## %bb.0:
	push	rbp
	.cfi_def_cfa_offset 16
	.cfi_offset rbp, -16
	mov	rbp, rsp
	.cfi_def_cfa_register rbp
	mov	qword ptr [rbp - 8], rdi
	mov	rax, qword ptr [rbp - 8]
	mov	cl, byte ptr [rax]
	and	cl, 1
	movzx	eax, cl
	pop	rbp
	ret
	.cfi_endproc
                                        ## -- End function
	.private_extern	__ZNSt3__116__pad_and_outputIcNS_11char_traitsIcEEEENS_19ostreambuf_iteratorIT_T0_EES6_PKS4_S8_S8_RNS_8ios_baseES4_ ## -- Begin function _ZNSt3__116__pad_and_outputIcNS_11char_traitsIcEEEENS_19ostreambuf_iteratorIT_T0_EES6_PKS4_S8_S8_RNS_8ios_baseES4_
	.globl	__ZNSt3__116__pad_and_outputIcNS_11char_traitsIcEEEENS_19ostreambuf_iteratorIT_T0_EES6_PKS4_S8_S8_RNS_8ios_baseES4_
	.weak_definition	__ZNSt3__116__pad_and_outputIcNS_11char_traitsIcEEEENS_19ostreambuf_iteratorIT_T0_EES6_PKS4_S8_S8_RNS_8ios_baseES4_
	.p2align	4, 0x90
__ZNSt3__116__pad_and_outputIcNS_11char_traitsIcEEEENS_19ostreambuf_iteratorIT_T0_EES6_PKS4_S8_S8_RNS_8ios_baseES4_: ## @_ZNSt3__116__pad_and_outputIcNS_11char_traitsIcEEEENS_19ostreambuf_iteratorIT_T0_EES6_PKS4_S8_S8_RNS_8ios_baseES4_
Lfunc_begin4:
	.cfi_startproc
	.cfi_personality 155, ___gxx_personality_v0
	.cfi_lsda 16, Lexception4
## %bb.0:
	push	rbp
	.cfi_def_cfa_offset 16
	.cfi_offset rbp, -16
	mov	rbp, rsp
	.cfi_def_cfa_register rbp
	sub	rsp, 144
                                        ## kill: def $r9b killed $r9b killed $r9d
	mov	qword ptr [rbp - 16], rdi
	mov	qword ptr [rbp - 24], rsi
	mov	qword ptr [rbp - 32], rdx
	mov	qword ptr [rbp - 40], rcx
	mov	qword ptr [rbp - 48], r8
	mov	byte ptr [rbp - 49], r9b
	cmp	qword ptr [rbp - 16], 0
	jne	LBB25_2
## %bb.1:
	mov	rax, qword ptr [rbp - 16]
	mov	qword ptr [rbp - 8], rax
	jmp	LBB25_22
LBB25_2:
	mov	rax, qword ptr [rbp - 40]
	mov	rcx, qword ptr [rbp - 24]
	sub	rax, rcx
	mov	qword ptr [rbp - 64], rax
	mov	rdi, qword ptr [rbp - 48]
	call	__ZNKSt3__18ios_base5widthEv
	mov	qword ptr [rbp - 72], rax
	mov	rax, qword ptr [rbp - 72]
	cmp	rax, qword ptr [rbp - 64]
	jle	LBB25_4
## %bb.3:
	mov	rax, qword ptr [rbp - 64]
	mov	rcx, qword ptr [rbp - 72]
	sub	rcx, rax
	mov	qword ptr [rbp - 72], rcx
	jmp	LBB25_5
LBB25_4:
	mov	qword ptr [rbp - 72], 0
LBB25_5:
	mov	rax, qword ptr [rbp - 32]
	mov	rcx, qword ptr [rbp - 24]
	sub	rax, rcx
	mov	qword ptr [rbp - 80], rax
	cmp	qword ptr [rbp - 80], 0
	jle	LBB25_9
## %bb.6:
	mov	rdi, qword ptr [rbp - 16]
	mov	rsi, qword ptr [rbp - 24]
	mov	rdx, qword ptr [rbp - 80]
	call	__ZNSt3__115basic_streambufIcNS_11char_traitsIcEEE5sputnEPKcl
	cmp	rax, qword ptr [rbp - 80]
	je	LBB25_8
## %bb.7:
	mov	qword ptr [rbp - 16], 0
	mov	rax, qword ptr [rbp - 16]
	mov	qword ptr [rbp - 8], rax
	jmp	LBB25_22
LBB25_8:
	jmp	LBB25_9
LBB25_9:
	cmp	qword ptr [rbp - 72], 0
	jle	LBB25_17
## %bb.10:
	mov	rsi, qword ptr [rbp - 72]
	movsx	edx, byte ptr [rbp - 49]
	lea	rax, [rbp - 104]
	mov	rdi, rax
	mov	qword ptr [rbp - 128], rax ## 8-byte Spill
	call	__ZNSt3__112basic_stringIcNS_11char_traitsIcEENS_9allocatorIcEEEC1Emc
	mov	rdi, qword ptr [rbp - 16]
	mov	rax, qword ptr [rbp - 128] ## 8-byte Reload
	mov	qword ptr [rbp - 136], rdi ## 8-byte Spill
	mov	rdi, rax
	call	__ZNSt3__112basic_stringIcNS_11char_traitsIcEENS_9allocatorIcEEE4dataEv
	mov	rdx, qword ptr [rbp - 72]
Ltmp128:
	mov	rdi, qword ptr [rbp - 136] ## 8-byte Reload
	mov	rsi, rax
	call	__ZNSt3__115basic_streambufIcNS_11char_traitsIcEEE5sputnEPKcl
Ltmp129:
	mov	qword ptr [rbp - 144], rax ## 8-byte Spill
	jmp	LBB25_11
LBB25_11:
	mov	rax, qword ptr [rbp - 144] ## 8-byte Reload
	cmp	rax, qword ptr [rbp - 72]
	je	LBB25_14
## %bb.12:
	mov	qword ptr [rbp - 16], 0
	mov	rax, qword ptr [rbp - 16]
	mov	qword ptr [rbp - 8], rax
	mov	dword ptr [rbp - 120], 1
	jmp	LBB25_15
LBB25_13:
Ltmp130:
                                        ## kill: def $edx killed $edx killed $rdx
	mov	qword ptr [rbp - 112], rax
	mov	dword ptr [rbp - 116], edx
	lea	rdi, [rbp - 104]
	call	__ZNSt3__112basic_stringIcNS_11char_traitsIcEENS_9allocatorIcEEED1Ev
	jmp	LBB25_23
LBB25_14:
	mov	dword ptr [rbp - 120], 0
LBB25_15:
	lea	rdi, [rbp - 104]
	call	__ZNSt3__112basic_stringIcNS_11char_traitsIcEENS_9allocatorIcEEED1Ev
	mov	eax, dword ptr [rbp - 120]
	test	eax, eax
	je	LBB25_16
	jmp	LBB25_25
LBB25_25:
	jmp	LBB25_22
LBB25_16:
	jmp	LBB25_17
LBB25_17:
	mov	rax, qword ptr [rbp - 40]
	mov	rcx, qword ptr [rbp - 32]
	sub	rax, rcx
	mov	qword ptr [rbp - 80], rax
	cmp	qword ptr [rbp - 80], 0
	jle	LBB25_21
## %bb.18:
	mov	rdi, qword ptr [rbp - 16]
	mov	rsi, qword ptr [rbp - 32]
	mov	rdx, qword ptr [rbp - 80]
	call	__ZNSt3__115basic_streambufIcNS_11char_traitsIcEEE5sputnEPKcl
	cmp	rax, qword ptr [rbp - 80]
	je	LBB25_20
## %bb.19:
	mov	qword ptr [rbp - 16], 0
	mov	rax, qword ptr [rbp - 16]
	mov	qword ptr [rbp - 8], rax
	jmp	LBB25_22
LBB25_20:
	jmp	LBB25_21
LBB25_21:
	xor	eax, eax
	mov	esi, eax
	mov	rdi, qword ptr [rbp - 48]
	call	__ZNSt3__18ios_base5widthEl
	mov	rcx, qword ptr [rbp - 16]
	mov	qword ptr [rbp - 8], rcx
LBB25_22:
	mov	rax, qword ptr [rbp - 8]
	add	rsp, 144
	pop	rbp
	ret
LBB25_23:
	mov	rdi, qword ptr [rbp - 112]
	call	__Unwind_Resume
	ud2
## %bb.24:
	ud2
Lfunc_end4:
	.cfi_endproc
	.section	__TEXT,__gcc_except_tab
	.p2align	2
GCC_except_table25:
Lexception4:
	.byte	255                     ## @LPStart Encoding = omit
	.byte	255                     ## @TType Encoding = omit
	.byte	1                       ## Call site Encoding = uleb128
	.uleb128 Lcst_end4-Lcst_begin4
Lcst_begin4:
	.uleb128 Lfunc_begin4-Lfunc_begin4 ## >> Call Site 1 <<
	.uleb128 Ltmp128-Lfunc_begin4   ##   Call between Lfunc_begin4 and Ltmp128
	.byte	0                       ##     has no landing pad
	.byte	0                       ##   On action: cleanup
	.uleb128 Ltmp128-Lfunc_begin4   ## >> Call Site 2 <<
	.uleb128 Ltmp129-Ltmp128        ##   Call between Ltmp128 and Ltmp129
	.uleb128 Ltmp130-Lfunc_begin4   ##     jumps to Ltmp130
	.byte	0                       ##   On action: cleanup
	.uleb128 Ltmp129-Lfunc_begin4   ## >> Call Site 3 <<
	.uleb128 Lfunc_end4-Ltmp129     ##   Call between Ltmp129 and Lfunc_end4
	.byte	0                       ##     has no landing pad
	.byte	0                       ##   On action: cleanup
Lcst_end4:
	.p2align	2
                                        ## -- End function
	.section	__TEXT,__text,regular,pure_instructions
	.p2align	4, 0x90         ## -- Begin function _ZNSt3__119ostreambuf_iteratorIcNS_11char_traitsIcEEEC1ERNS_13basic_ostreamIcS2_EE
__ZNSt3__119ostreambuf_iteratorIcNS_11char_traitsIcEEEC1ERNS_13basic_ostreamIcS2_EE: ## @_ZNSt3__119ostreambuf_iteratorIcNS_11char_traitsIcEEEC1ERNS_13basic_ostreamIcS2_EE
	.cfi_startproc
## %bb.0:
	push	rbp
	.cfi_def_cfa_offset 16
	.cfi_offset rbp, -16
	mov	rbp, rsp
	.cfi_def_cfa_register rbp
	sub	rsp, 16
	mov	qword ptr [rbp - 8], rdi
	mov	qword ptr [rbp - 16], rsi
	mov	rdi, qword ptr [rbp - 8]
	mov	rsi, qword ptr [rbp - 16]
	call	__ZNSt3__119ostreambuf_iteratorIcNS_11char_traitsIcEEEC2ERNS_13basic_ostreamIcS2_EE
	add	rsp, 16
	pop	rbp
	ret
	.cfi_endproc
                                        ## -- End function
	.p2align	4, 0x90         ## -- Begin function _ZNKSt3__18ios_base5flagsEv
__ZNKSt3__18ios_base5flagsEv:           ## @_ZNKSt3__18ios_base5flagsEv
	.cfi_startproc
## %bb.0:
	push	rbp
	.cfi_def_cfa_offset 16
	.cfi_offset rbp, -16
	mov	rbp, rsp
	.cfi_def_cfa_register rbp
	mov	qword ptr [rbp - 8], rdi
	mov	rax, qword ptr [rbp - 8]
	mov	eax, dword ptr [rax + 8]
	pop	rbp
	ret
	.cfi_endproc
                                        ## -- End function
	.p2align	4, 0x90         ## -- Begin function _ZNKSt3__19basic_iosIcNS_11char_traitsIcEEE4fillEv
__ZNKSt3__19basic_iosIcNS_11char_traitsIcEEE4fillEv: ## @_ZNKSt3__19basic_iosIcNS_11char_traitsIcEEE4fillEv
	.cfi_startproc
## %bb.0:
	push	rbp
	.cfi_def_cfa_offset 16
	.cfi_offset rbp, -16
	mov	rbp, rsp
	.cfi_def_cfa_register rbp
	sub	rsp, 16
	mov	qword ptr [rbp - 8], rdi
	mov	rax, qword ptr [rbp - 8]
	mov	qword ptr [rbp - 16], rax ## 8-byte Spill
	call	__ZNSt3__111char_traitsIcE3eofEv
	mov	rcx, qword ptr [rbp - 16] ## 8-byte Reload
	mov	esi, dword ptr [rcx + 144]
	mov	edi, eax
	call	__ZNSt3__111char_traitsIcE11eq_int_typeEii
	test	al, 1
	jne	LBB28_1
	jmp	LBB28_2
LBB28_1:
	mov	rdi, qword ptr [rbp - 16] ## 8-byte Reload
	mov	esi, 32
	call	__ZNKSt3__19basic_iosIcNS_11char_traitsIcEEE5widenEc
	movsx	ecx, al
	mov	rdx, qword ptr [rbp - 16] ## 8-byte Reload
	mov	dword ptr [rdx + 144], ecx
LBB28_2:
	mov	rax, qword ptr [rbp - 16] ## 8-byte Reload
	mov	ecx, dword ptr [rax + 144]
                                        ## kill: def $cl killed $cl killed $ecx
	movsx	edx, cl
	mov	eax, edx
	add	rsp, 16
	pop	rbp
	ret
	.cfi_endproc
                                        ## -- End function
	.p2align	4, 0x90         ## -- Begin function _ZNKSt3__119ostreambuf_iteratorIcNS_11char_traitsIcEEE6failedEv
__ZNKSt3__119ostreambuf_iteratorIcNS_11char_traitsIcEEE6failedEv: ## @_ZNKSt3__119ostreambuf_iteratorIcNS_11char_traitsIcEEE6failedEv
	.cfi_startproc
## %bb.0:
	push	rbp
	.cfi_def_cfa_offset 16
	.cfi_offset rbp, -16
	mov	rbp, rsp
	.cfi_def_cfa_register rbp
	mov	qword ptr [rbp - 8], rdi
	mov	rax, qword ptr [rbp - 8]
	cmp	qword ptr [rax], 0
	sete	cl
	and	cl, 1
	movzx	eax, cl
	pop	rbp
	ret
	.cfi_endproc
                                        ## -- End function
	.p2align	4, 0x90         ## -- Begin function _ZNSt3__19basic_iosIcNS_11char_traitsIcEEE8setstateEj
__ZNSt3__19basic_iosIcNS_11char_traitsIcEEE8setstateEj: ## @_ZNSt3__19basic_iosIcNS_11char_traitsIcEEE8setstateEj
	.cfi_startproc
## %bb.0:
	push	rbp
	.cfi_def_cfa_offset 16
	.cfi_offset rbp, -16
	mov	rbp, rsp
	.cfi_def_cfa_register rbp
	sub	rsp, 16
	mov	qword ptr [rbp - 8], rdi
	mov	dword ptr [rbp - 12], esi
	mov	rax, qword ptr [rbp - 8]
	mov	esi, dword ptr [rbp - 12]
	mov	rdi, rax
	call	__ZNSt3__18ios_base8setstateEj
	add	rsp, 16
	pop	rbp
	ret
	.cfi_endproc
                                        ## -- End function
	.p2align	4, 0x90         ## -- Begin function _ZNKSt3__18ios_base5widthEv
__ZNKSt3__18ios_base5widthEv:           ## @_ZNKSt3__18ios_base5widthEv
	.cfi_startproc
## %bb.0:
	push	rbp
	.cfi_def_cfa_offset 16
	.cfi_offset rbp, -16
	mov	rbp, rsp
	.cfi_def_cfa_register rbp
	mov	qword ptr [rbp - 8], rdi
	mov	rax, qword ptr [rbp - 8]
	mov	rax, qword ptr [rax + 24]
	pop	rbp
	ret
	.cfi_endproc
                                        ## -- End function
	.p2align	4, 0x90         ## -- Begin function _ZNSt3__115basic_streambufIcNS_11char_traitsIcEEE5sputnEPKcl
__ZNSt3__115basic_streambufIcNS_11char_traitsIcEEE5sputnEPKcl: ## @_ZNSt3__115basic_streambufIcNS_11char_traitsIcEEE5sputnEPKcl
	.cfi_startproc
## %bb.0:
	push	rbp
	.cfi_def_cfa_offset 16
	.cfi_offset rbp, -16
	mov	rbp, rsp
	.cfi_def_cfa_register rbp
	sub	rsp, 32
	mov	qword ptr [rbp - 8], rdi
	mov	qword ptr [rbp - 16], rsi
	mov	qword ptr [rbp - 24], rdx
	mov	rax, qword ptr [rbp - 8]
	mov	rsi, qword ptr [rbp - 16]
	mov	rdx, qword ptr [rbp - 24]
	mov	rcx, qword ptr [rax]
	mov	rdi, rax
	call	qword ptr [rcx + 96]
	add	rsp, 32
	pop	rbp
	ret
	.cfi_endproc
                                        ## -- End function
	.p2align	4, 0x90         ## -- Begin function _ZNSt3__112basic_stringIcNS_11char_traitsIcEENS_9allocatorIcEEEC1Emc
__ZNSt3__112basic_stringIcNS_11char_traitsIcEENS_9allocatorIcEEEC1Emc: ## @_ZNSt3__112basic_stringIcNS_11char_traitsIcEENS_9allocatorIcEEEC1Emc
	.cfi_startproc
## %bb.0:
	push	rbp
	.cfi_def_cfa_offset 16
	.cfi_offset rbp, -16
	mov	rbp, rsp
	.cfi_def_cfa_register rbp
	sub	rsp, 32
                                        ## kill: def $dl killed $dl killed $edx
	mov	qword ptr [rbp - 8], rdi
	mov	qword ptr [rbp - 16], rsi
	mov	byte ptr [rbp - 17], dl
	mov	rdi, qword ptr [rbp - 8]
	mov	rsi, qword ptr [rbp - 16]
	movsx	edx, byte ptr [rbp - 17]
	call	__ZNSt3__112basic_stringIcNS_11char_traitsIcEENS_9allocatorIcEEEC2Emc
	add	rsp, 32
	pop	rbp
	ret
	.cfi_endproc
                                        ## -- End function
	.p2align	4, 0x90         ## -- Begin function _ZNSt3__112basic_stringIcNS_11char_traitsIcEENS_9allocatorIcEEE4dataEv
__ZNSt3__112basic_stringIcNS_11char_traitsIcEENS_9allocatorIcEEE4dataEv: ## @_ZNSt3__112basic_stringIcNS_11char_traitsIcEENS_9allocatorIcEEE4dataEv
	.cfi_startproc
## %bb.0:
	push	rbp
	.cfi_def_cfa_offset 16
	.cfi_offset rbp, -16
	mov	rbp, rsp
	.cfi_def_cfa_register rbp
	sub	rsp, 16
	mov	qword ptr [rbp - 8], rdi
	mov	rdi, qword ptr [rbp - 8]
	call	__ZNSt3__112basic_stringIcNS_11char_traitsIcEENS_9allocatorIcEEE13__get_pointerEv
	mov	rdi, rax
	call	__ZNSt3__1L16__to_raw_pointerIcEEPT_S2_
	add	rsp, 16
	pop	rbp
	ret
	.cfi_endproc
                                        ## -- End function
	.p2align	4, 0x90         ## -- Begin function _ZNSt3__18ios_base5widthEl
__ZNSt3__18ios_base5widthEl:            ## @_ZNSt3__18ios_base5widthEl
	.cfi_startproc
## %bb.0:
	push	rbp
	.cfi_def_cfa_offset 16
	.cfi_offset rbp, -16
	mov	rbp, rsp
	.cfi_def_cfa_register rbp
	mov	qword ptr [rbp - 8], rdi
	mov	qword ptr [rbp - 16], rsi
	mov	rax, qword ptr [rbp - 8]
	mov	rcx, qword ptr [rax + 24]
	mov	qword ptr [rbp - 24], rcx
	mov	rcx, qword ptr [rbp - 16]
	mov	qword ptr [rax + 24], rcx
	mov	rax, qword ptr [rbp - 24]
	pop	rbp
	ret
	.cfi_endproc
                                        ## -- End function
	.p2align	4, 0x90         ## -- Begin function _ZNSt3__112basic_stringIcNS_11char_traitsIcEENS_9allocatorIcEEEC2Emc
__ZNSt3__112basic_stringIcNS_11char_traitsIcEENS_9allocatorIcEEEC2Emc: ## @_ZNSt3__112basic_stringIcNS_11char_traitsIcEENS_9allocatorIcEEEC2Emc
	.cfi_startproc
## %bb.0:
	push	rbp
	.cfi_def_cfa_offset 16
	.cfi_offset rbp, -16
	mov	rbp, rsp
	.cfi_def_cfa_register rbp
	sub	rsp, 32
                                        ## kill: def $dl killed $dl killed $edx
	mov	qword ptr [rbp - 8], rdi
	mov	qword ptr [rbp - 16], rsi
	mov	byte ptr [rbp - 17], dl
	mov	rax, qword ptr [rbp - 8]
	mov	rdi, rax
	mov	qword ptr [rbp - 32], rax ## 8-byte Spill
	call	__ZNSt3__117__compressed_pairINS_12basic_stringIcNS_11char_traitsIcEENS_9allocatorIcEEE5__repES5_EC1ILb1EvEEv
	mov	rsi, qword ptr [rbp - 16]
	mov	rdi, qword ptr [rbp - 32] ## 8-byte Reload
	movsx	edx, byte ptr [rbp - 17]
	call	__ZNSt3__112basic_stringIcNS_11char_traitsIcEENS_9allocatorIcEEE6__initEmc
	add	rsp, 32
	pop	rbp
	ret
	.cfi_endproc
                                        ## -- End function
	.p2align	4, 0x90         ## -- Begin function _ZNSt3__117__compressed_pairINS_12basic_stringIcNS_11char_traitsIcEENS_9allocatorIcEEE5__repES5_EC1ILb1EvEEv
__ZNSt3__117__compressed_pairINS_12basic_stringIcNS_11char_traitsIcEENS_9allocatorIcEEE5__repES5_EC1ILb1EvEEv: ## @_ZNSt3__117__compressed_pairINS_12basic_stringIcNS_11char_traitsIcEENS_9allocatorIcEEE5__repES5_EC1ILb1EvEEv
	.cfi_startproc
## %bb.0:
	push	rbp
	.cfi_def_cfa_offset 16
	.cfi_offset rbp, -16
	mov	rbp, rsp
	.cfi_def_cfa_register rbp
	sub	rsp, 16
	mov	qword ptr [rbp - 8], rdi
	mov	rdi, qword ptr [rbp - 8]
	call	__ZNSt3__117__compressed_pairINS_12basic_stringIcNS_11char_traitsIcEENS_9allocatorIcEEE5__repES5_EC2ILb1EvEEv
	add	rsp, 16
	pop	rbp
	ret
	.cfi_endproc
                                        ## -- End function
	.p2align	4, 0x90         ## -- Begin function _ZNSt3__117__compressed_pairINS_12basic_stringIcNS_11char_traitsIcEENS_9allocatorIcEEE5__repES5_EC2ILb1EvEEv
__ZNSt3__117__compressed_pairINS_12basic_stringIcNS_11char_traitsIcEENS_9allocatorIcEEE5__repES5_EC2ILb1EvEEv: ## @_ZNSt3__117__compressed_pairINS_12basic_stringIcNS_11char_traitsIcEENS_9allocatorIcEEE5__repES5_EC2ILb1EvEEv
	.cfi_startproc
## %bb.0:
	push	rbp
	.cfi_def_cfa_offset 16
	.cfi_offset rbp, -16
	mov	rbp, rsp
	.cfi_def_cfa_register rbp
	sub	rsp, 16
	mov	qword ptr [rbp - 8], rdi
	mov	rax, qword ptr [rbp - 8]
	mov	rcx, rax
	mov	rdi, rcx
	mov	qword ptr [rbp - 16], rax ## 8-byte Spill
	call	__ZNSt3__122__compressed_pair_elemINS_12basic_stringIcNS_11char_traitsIcEENS_9allocatorIcEEE5__repELi0ELb0EEC2Ev
	mov	rax, qword ptr [rbp - 16] ## 8-byte Reload
	mov	rdi, rax
	call	__ZNSt3__122__compressed_pair_elemINS_9allocatorIcEELi1ELb1EEC2Ev
	add	rsp, 16
	pop	rbp
	ret
	.cfi_endproc
                                        ## -- End function
	.p2align	4, 0x90         ## -- Begin function _ZNSt3__122__compressed_pair_elemINS_12basic_stringIcNS_11char_traitsIcEENS_9allocatorIcEEE5__repELi0ELb0EEC2Ev
__ZNSt3__122__compressed_pair_elemINS_12basic_stringIcNS_11char_traitsIcEENS_9allocatorIcEEE5__repELi0ELb0EEC2Ev: ## @_ZNSt3__122__compressed_pair_elemINS_12basic_stringIcNS_11char_traitsIcEENS_9allocatorIcEEE5__repELi0ELb0EEC2Ev
	.cfi_startproc
## %bb.0:
	push	rbp
	.cfi_def_cfa_offset 16
	.cfi_offset rbp, -16
	mov	rbp, rsp
	.cfi_def_cfa_register rbp
	sub	rsp, 16
	xor	esi, esi
	mov	qword ptr [rbp - 8], rdi
	mov	rax, qword ptr [rbp - 8]
	mov	rdi, rax
	mov	edx, 24
	call	_memset
	add	rsp, 16
	pop	rbp
	ret
	.cfi_endproc
                                        ## -- End function
	.p2align	4, 0x90         ## -- Begin function _ZNSt3__122__compressed_pair_elemINS_9allocatorIcEELi1ELb1EEC2Ev
__ZNSt3__122__compressed_pair_elemINS_9allocatorIcEELi1ELb1EEC2Ev: ## @_ZNSt3__122__compressed_pair_elemINS_9allocatorIcEELi1ELb1EEC2Ev
	.cfi_startproc
## %bb.0:
	push	rbp
	.cfi_def_cfa_offset 16
	.cfi_offset rbp, -16
	mov	rbp, rsp
	.cfi_def_cfa_register rbp
	sub	rsp, 16
	mov	qword ptr [rbp - 8], rdi
	mov	rax, qword ptr [rbp - 8]
	mov	rdi, rax
	call	__ZNSt3__19allocatorIcEC2Ev
	add	rsp, 16
	pop	rbp
	ret
	.cfi_endproc
                                        ## -- End function
	.p2align	4, 0x90         ## -- Begin function _ZNSt3__19allocatorIcEC2Ev
__ZNSt3__19allocatorIcEC2Ev:            ## @_ZNSt3__19allocatorIcEC2Ev
	.cfi_startproc
## %bb.0:
	push	rbp
	.cfi_def_cfa_offset 16
	.cfi_offset rbp, -16
	mov	rbp, rsp
	.cfi_def_cfa_register rbp
	mov	qword ptr [rbp - 8], rdi
	pop	rbp
	ret
	.cfi_endproc
                                        ## -- End function
	.p2align	4, 0x90         ## -- Begin function _ZNSt3__1L16__to_raw_pointerIcEEPT_S2_
__ZNSt3__1L16__to_raw_pointerIcEEPT_S2_: ## @_ZNSt3__1L16__to_raw_pointerIcEEPT_S2_
	.cfi_startproc
## %bb.0:
	push	rbp
	.cfi_def_cfa_offset 16
	.cfi_offset rbp, -16
	mov	rbp, rsp
	.cfi_def_cfa_register rbp
	mov	qword ptr [rbp - 8], rdi
	mov	rax, qword ptr [rbp - 8]
	pop	rbp
	ret
	.cfi_endproc
                                        ## -- End function
	.p2align	4, 0x90         ## -- Begin function _ZNSt3__112basic_stringIcNS_11char_traitsIcEENS_9allocatorIcEEE13__get_pointerEv
__ZNSt3__112basic_stringIcNS_11char_traitsIcEENS_9allocatorIcEEE13__get_pointerEv: ## @_ZNSt3__112basic_stringIcNS_11char_traitsIcEENS_9allocatorIcEEE13__get_pointerEv
	.cfi_startproc
## %bb.0:
	push	rbp
	.cfi_def_cfa_offset 16
	.cfi_offset rbp, -16
	mov	rbp, rsp
	.cfi_def_cfa_register rbp
	sub	rsp, 32
	mov	qword ptr [rbp - 8], rdi
	mov	rax, qword ptr [rbp - 8]
	mov	rdi, rax
	mov	qword ptr [rbp - 16], rax ## 8-byte Spill
	call	__ZNKSt3__112basic_stringIcNS_11char_traitsIcEENS_9allocatorIcEEE9__is_longEv
	test	al, 1
	jne	LBB43_1
	jmp	LBB43_2
LBB43_1:
	mov	rdi, qword ptr [rbp - 16] ## 8-byte Reload
	call	__ZNSt3__112basic_stringIcNS_11char_traitsIcEENS_9allocatorIcEEE18__get_long_pointerEv
	mov	qword ptr [rbp - 24], rax ## 8-byte Spill
	jmp	LBB43_3
LBB43_2:
	mov	rdi, qword ptr [rbp - 16] ## 8-byte Reload
	call	__ZNSt3__112basic_stringIcNS_11char_traitsIcEENS_9allocatorIcEEE19__get_short_pointerEv
	mov	qword ptr [rbp - 24], rax ## 8-byte Spill
LBB43_3:
	mov	rax, qword ptr [rbp - 24] ## 8-byte Reload
	add	rsp, 32
	pop	rbp
	ret
	.cfi_endproc
                                        ## -- End function
	.p2align	4, 0x90         ## -- Begin function _ZNKSt3__112basic_stringIcNS_11char_traitsIcEENS_9allocatorIcEEE9__is_longEv
__ZNKSt3__112basic_stringIcNS_11char_traitsIcEENS_9allocatorIcEEE9__is_longEv: ## @_ZNKSt3__112basic_stringIcNS_11char_traitsIcEENS_9allocatorIcEEE9__is_longEv
	.cfi_startproc
## %bb.0:
	push	rbp
	.cfi_def_cfa_offset 16
	.cfi_offset rbp, -16
	mov	rbp, rsp
	.cfi_def_cfa_register rbp
	sub	rsp, 16
	mov	qword ptr [rbp - 8], rdi
	mov	rdi, qword ptr [rbp - 8]
	call	__ZNKSt3__117__compressed_pairINS_12basic_stringIcNS_11char_traitsIcEENS_9allocatorIcEEE5__repES5_E5firstEv
	movzx	ecx, byte ptr [rax]
	mov	eax, ecx
	and	rax, 1
	cmp	rax, 0
	setne	dl
	and	dl, 1
	movzx	eax, dl
	add	rsp, 16
	pop	rbp
	ret
	.cfi_endproc
                                        ## -- End function
	.p2align	4, 0x90         ## -- Begin function _ZNSt3__112basic_stringIcNS_11char_traitsIcEENS_9allocatorIcEEE18__get_long_pointerEv
__ZNSt3__112basic_stringIcNS_11char_traitsIcEENS_9allocatorIcEEE18__get_long_pointerEv: ## @_ZNSt3__112basic_stringIcNS_11char_traitsIcEENS_9allocatorIcEEE18__get_long_pointerEv
	.cfi_startproc
## %bb.0:
	push	rbp
	.cfi_def_cfa_offset 16
	.cfi_offset rbp, -16
	mov	rbp, rsp
	.cfi_def_cfa_register rbp
	sub	rsp, 16
	mov	qword ptr [rbp - 8], rdi
	mov	rdi, qword ptr [rbp - 8]
	call	__ZNSt3__117__compressed_pairINS_12basic_stringIcNS_11char_traitsIcEENS_9allocatorIcEEE5__repES5_E5firstEv
	mov	rax, qword ptr [rax + 16]
	add	rsp, 16
	pop	rbp
	ret
	.cfi_endproc
                                        ## -- End function
	.p2align	4, 0x90         ## -- Begin function _ZNSt3__112basic_stringIcNS_11char_traitsIcEENS_9allocatorIcEEE19__get_short_pointerEv
__ZNSt3__112basic_stringIcNS_11char_traitsIcEENS_9allocatorIcEEE19__get_short_pointerEv: ## @_ZNSt3__112basic_stringIcNS_11char_traitsIcEENS_9allocatorIcEEE19__get_short_pointerEv
	.cfi_startproc
## %bb.0:
	push	rbp
	.cfi_def_cfa_offset 16
	.cfi_offset rbp, -16
	mov	rbp, rsp
	.cfi_def_cfa_register rbp
	sub	rsp, 16
	mov	qword ptr [rbp - 8], rdi
	mov	rdi, qword ptr [rbp - 8]
	call	__ZNSt3__117__compressed_pairINS_12basic_stringIcNS_11char_traitsIcEENS_9allocatorIcEEE5__repES5_E5firstEv
	add	rax, 1
	mov	rdi, rax
	call	__ZNSt3__114pointer_traitsIPcE10pointer_toERc
	add	rsp, 16
	pop	rbp
	ret
	.cfi_endproc
                                        ## -- End function
	.p2align	4, 0x90         ## -- Begin function _ZNKSt3__117__compressed_pairINS_12basic_stringIcNS_11char_traitsIcEENS_9allocatorIcEEE5__repES5_E5firstEv
__ZNKSt3__117__compressed_pairINS_12basic_stringIcNS_11char_traitsIcEENS_9allocatorIcEEE5__repES5_E5firstEv: ## @_ZNKSt3__117__compressed_pairINS_12basic_stringIcNS_11char_traitsIcEENS_9allocatorIcEEE5__repES5_E5firstEv
	.cfi_startproc
## %bb.0:
	push	rbp
	.cfi_def_cfa_offset 16
	.cfi_offset rbp, -16
	mov	rbp, rsp
	.cfi_def_cfa_register rbp
	sub	rsp, 16
	mov	qword ptr [rbp - 8], rdi
	mov	rax, qword ptr [rbp - 8]
	mov	rdi, rax
	call	__ZNKSt3__122__compressed_pair_elemINS_12basic_stringIcNS_11char_traitsIcEENS_9allocatorIcEEE5__repELi0ELb0EE5__getEv
	add	rsp, 16
	pop	rbp
	ret
	.cfi_endproc
                                        ## -- End function
	.p2align	4, 0x90         ## -- Begin function _ZNKSt3__122__compressed_pair_elemINS_12basic_stringIcNS_11char_traitsIcEENS_9allocatorIcEEE5__repELi0ELb0EE5__getEv
__ZNKSt3__122__compressed_pair_elemINS_12basic_stringIcNS_11char_traitsIcEENS_9allocatorIcEEE5__repELi0ELb0EE5__getEv: ## @_ZNKSt3__122__compressed_pair_elemINS_12basic_stringIcNS_11char_traitsIcEENS_9allocatorIcEEE5__repELi0ELb0EE5__getEv
	.cfi_startproc
## %bb.0:
	push	rbp
	.cfi_def_cfa_offset 16
	.cfi_offset rbp, -16
	mov	rbp, rsp
	.cfi_def_cfa_register rbp
	mov	qword ptr [rbp - 8], rdi
	mov	rax, qword ptr [rbp - 8]
	pop	rbp
	ret
	.cfi_endproc
                                        ## -- End function
	.p2align	4, 0x90         ## -- Begin function _ZNSt3__117__compressed_pairINS_12basic_stringIcNS_11char_traitsIcEENS_9allocatorIcEEE5__repES5_E5firstEv
__ZNSt3__117__compressed_pairINS_12basic_stringIcNS_11char_traitsIcEENS_9allocatorIcEEE5__repES5_E5firstEv: ## @_ZNSt3__117__compressed_pairINS_12basic_stringIcNS_11char_traitsIcEENS_9allocatorIcEEE5__repES5_E5firstEv
	.cfi_startproc
## %bb.0:
	push	rbp
	.cfi_def_cfa_offset 16
	.cfi_offset rbp, -16
	mov	rbp, rsp
	.cfi_def_cfa_register rbp
	sub	rsp, 16
	mov	qword ptr [rbp - 8], rdi
	mov	rax, qword ptr [rbp - 8]
	mov	rdi, rax
	call	__ZNSt3__122__compressed_pair_elemINS_12basic_stringIcNS_11char_traitsIcEENS_9allocatorIcEEE5__repELi0ELb0EE5__getEv
	add	rsp, 16
	pop	rbp
	ret
	.cfi_endproc
                                        ## -- End function
	.p2align	4, 0x90         ## -- Begin function _ZNSt3__122__compressed_pair_elemINS_12basic_stringIcNS_11char_traitsIcEENS_9allocatorIcEEE5__repELi0ELb0EE5__getEv
__ZNSt3__122__compressed_pair_elemINS_12basic_stringIcNS_11char_traitsIcEENS_9allocatorIcEEE5__repELi0ELb0EE5__getEv: ## @_ZNSt3__122__compressed_pair_elemINS_12basic_stringIcNS_11char_traitsIcEENS_9allocatorIcEEE5__repELi0ELb0EE5__getEv
	.cfi_startproc
## %bb.0:
	push	rbp
	.cfi_def_cfa_offset 16
	.cfi_offset rbp, -16
	mov	rbp, rsp
	.cfi_def_cfa_register rbp
	mov	qword ptr [rbp - 8], rdi
	mov	rax, qword ptr [rbp - 8]
	pop	rbp
	ret
	.cfi_endproc
                                        ## -- End function
	.p2align	4, 0x90         ## -- Begin function _ZNSt3__114pointer_traitsIPcE10pointer_toERc
__ZNSt3__114pointer_traitsIPcE10pointer_toERc: ## @_ZNSt3__114pointer_traitsIPcE10pointer_toERc
	.cfi_startproc
## %bb.0:
	push	rbp
	.cfi_def_cfa_offset 16
	.cfi_offset rbp, -16
	mov	rbp, rsp
	.cfi_def_cfa_register rbp
	sub	rsp, 16
	mov	qword ptr [rbp - 8], rdi
	mov	rdi, qword ptr [rbp - 8]
	call	__ZNSt3__1L9addressofIcEEPT_RS1_
	add	rsp, 16
	pop	rbp
	ret
	.cfi_endproc
                                        ## -- End function
	.p2align	4, 0x90         ## -- Begin function _ZNSt3__1L9addressofIcEEPT_RS1_
__ZNSt3__1L9addressofIcEEPT_RS1_:       ## @_ZNSt3__1L9addressofIcEEPT_RS1_
	.cfi_startproc
## %bb.0:
	push	rbp
	.cfi_def_cfa_offset 16
	.cfi_offset rbp, -16
	mov	rbp, rsp
	.cfi_def_cfa_register rbp
	mov	qword ptr [rbp - 8], rdi
	mov	rax, qword ptr [rbp - 8]
	pop	rbp
	ret
	.cfi_endproc
                                        ## -- End function
	.p2align	4, 0x90         ## -- Begin function _ZNSt3__119ostreambuf_iteratorIcNS_11char_traitsIcEEEC2ERNS_13basic_ostreamIcS2_EE
__ZNSt3__119ostreambuf_iteratorIcNS_11char_traitsIcEEEC2ERNS_13basic_ostreamIcS2_EE: ## @_ZNSt3__119ostreambuf_iteratorIcNS_11char_traitsIcEEEC2ERNS_13basic_ostreamIcS2_EE
Lfunc_begin5:
	.cfi_startproc
	.cfi_personality 155, ___gxx_personality_v0
	.cfi_lsda 16, Lexception5
## %bb.0:
	push	rbp
	.cfi_def_cfa_offset 16
	.cfi_offset rbp, -16
	mov	rbp, rsp
	.cfi_def_cfa_register rbp
	sub	rsp, 48
	mov	qword ptr [rbp - 8], rdi
	mov	qword ptr [rbp - 16], rsi
	mov	rax, qword ptr [rbp - 8]
	mov	rcx, qword ptr [rbp - 16]
	mov	rdx, qword ptr [rcx]
	mov	rdx, qword ptr [rdx - 24]
	add	rcx, rdx
Ltmp131:
	mov	rdi, rcx
	mov	qword ptr [rbp - 24], rax ## 8-byte Spill
	call	__ZNKSt3__19basic_iosIcNS_11char_traitsIcEEE5rdbufEv
Ltmp132:
	mov	qword ptr [rbp - 32], rax ## 8-byte Spill
	jmp	LBB53_1
LBB53_1:
	mov	rax, qword ptr [rbp - 24] ## 8-byte Reload
	mov	rcx, qword ptr [rbp - 32] ## 8-byte Reload
	mov	qword ptr [rax], rcx
	add	rsp, 48
	pop	rbp
	ret
LBB53_2:
Ltmp133:
	mov	rdi, rax
	mov	qword ptr [rbp - 40], rdx ## 8-byte Spill
	call	___clang_call_terminate
Lfunc_end5:
	.cfi_endproc
	.section	__TEXT,__gcc_except_tab
	.p2align	2
GCC_except_table53:
Lexception5:
	.byte	255                     ## @LPStart Encoding = omit
	.byte	155                     ## @TType Encoding = indirect pcrel sdata4
	.uleb128 Lttbase2-Lttbaseref2
Lttbaseref2:
	.byte	1                       ## Call site Encoding = uleb128
	.uleb128 Lcst_end5-Lcst_begin5
Lcst_begin5:
	.uleb128 Ltmp131-Lfunc_begin5   ## >> Call Site 1 <<
	.uleb128 Ltmp132-Ltmp131        ##   Call between Ltmp131 and Ltmp132
	.uleb128 Ltmp133-Lfunc_begin5   ##     jumps to Ltmp133
	.byte	1                       ##   On action: 1
Lcst_end5:
	.byte	1                       ## >> Action Record 1 <<
                                        ##   Catch TypeInfo 1
	.byte	0                       ##   No further actions
	.p2align	2
                                        ## >> Catch TypeInfos <<
	.long	0                       ## TypeInfo 1
Lttbase2:
	.p2align	2
                                        ## -- End function
	.section	__TEXT,__text,regular,pure_instructions
	.p2align	4, 0x90         ## -- Begin function _ZNKSt3__19basic_iosIcNS_11char_traitsIcEEE5rdbufEv
__ZNKSt3__19basic_iosIcNS_11char_traitsIcEEE5rdbufEv: ## @_ZNKSt3__19basic_iosIcNS_11char_traitsIcEEE5rdbufEv
	.cfi_startproc
## %bb.0:
	push	rbp
	.cfi_def_cfa_offset 16
	.cfi_offset rbp, -16
	mov	rbp, rsp
	.cfi_def_cfa_register rbp
	sub	rsp, 16
	mov	qword ptr [rbp - 8], rdi
	mov	rax, qword ptr [rbp - 8]
	mov	rdi, rax
	call	__ZNKSt3__18ios_base5rdbufEv
	add	rsp, 16
	pop	rbp
	ret
	.cfi_endproc
                                        ## -- End function
	.p2align	4, 0x90         ## -- Begin function _ZNKSt3__18ios_base5rdbufEv
__ZNKSt3__18ios_base5rdbufEv:           ## @_ZNKSt3__18ios_base5rdbufEv
	.cfi_startproc
## %bb.0:
	push	rbp
	.cfi_def_cfa_offset 16
	.cfi_offset rbp, -16
	mov	rbp, rsp
	.cfi_def_cfa_register rbp
	mov	qword ptr [rbp - 8], rdi
	mov	rax, qword ptr [rbp - 8]
	mov	rax, qword ptr [rax + 40]
	pop	rbp
	ret
	.cfi_endproc
                                        ## -- End function
	.globl	__ZNSt3__111char_traitsIcE11eq_int_typeEii ## -- Begin function _ZNSt3__111char_traitsIcE11eq_int_typeEii
	.weak_definition	__ZNSt3__111char_traitsIcE11eq_int_typeEii
	.p2align	4, 0x90
__ZNSt3__111char_traitsIcE11eq_int_typeEii: ## @_ZNSt3__111char_traitsIcE11eq_int_typeEii
	.cfi_startproc
## %bb.0:
	push	rbp
	.cfi_def_cfa_offset 16
	.cfi_offset rbp, -16
	mov	rbp, rsp
	.cfi_def_cfa_register rbp
	mov	dword ptr [rbp - 4], edi
	mov	dword ptr [rbp - 8], esi
	mov	eax, dword ptr [rbp - 4]
	cmp	eax, dword ptr [rbp - 8]
	sete	cl
	and	cl, 1
	movzx	eax, cl
	pop	rbp
	ret
	.cfi_endproc
                                        ## -- End function
	.globl	__ZNSt3__111char_traitsIcE3eofEv ## -- Begin function _ZNSt3__111char_traitsIcE3eofEv
	.weak_definition	__ZNSt3__111char_traitsIcE3eofEv
	.p2align	4, 0x90
__ZNSt3__111char_traitsIcE3eofEv:       ## @_ZNSt3__111char_traitsIcE3eofEv
	.cfi_startproc
## %bb.0:
	push	rbp
	.cfi_def_cfa_offset 16
	.cfi_offset rbp, -16
	mov	rbp, rsp
	.cfi_def_cfa_register rbp
	mov	eax, 4294967295
	pop	rbp
	ret
	.cfi_endproc
                                        ## -- End function
	.p2align	4, 0x90         ## -- Begin function _ZNKSt3__19basic_iosIcNS_11char_traitsIcEEE5widenEc
__ZNKSt3__19basic_iosIcNS_11char_traitsIcEEE5widenEc: ## @_ZNKSt3__19basic_iosIcNS_11char_traitsIcEEE5widenEc
Lfunc_begin6:
	.cfi_startproc
	.cfi_personality 155, ___gxx_personality_v0
	.cfi_lsda 16, Lexception6
## %bb.0:
	push	rbp
	.cfi_def_cfa_offset 16
	.cfi_offset rbp, -16
	mov	rbp, rsp
	.cfi_def_cfa_register rbp
	sub	rsp, 64
                                        ## kill: def $sil killed $sil killed $esi
	mov	qword ptr [rbp - 8], rdi
	mov	byte ptr [rbp - 9], sil
	mov	rsi, qword ptr [rbp - 8]
	lea	rax, [rbp - 24]
	mov	rdi, rax
	mov	qword ptr [rbp - 48], rax ## 8-byte Spill
	call	__ZNKSt3__18ios_base6getlocEv
Ltmp134:
	mov	rdi, qword ptr [rbp - 48] ## 8-byte Reload
	call	__ZNSt3__1L9use_facetINS_5ctypeIcEEEERKT_RKNS_6localeE
Ltmp135:
	mov	qword ptr [rbp - 56], rax ## 8-byte Spill
	jmp	LBB58_1
LBB58_1:
	movsx	esi, byte ptr [rbp - 9]
Ltmp136:
	mov	rdi, qword ptr [rbp - 56] ## 8-byte Reload
	call	__ZNKSt3__15ctypeIcE5widenEc
Ltmp137:
	mov	byte ptr [rbp - 57], al ## 1-byte Spill
	jmp	LBB58_2
LBB58_2:
	lea	rdi, [rbp - 24]
	call	__ZNSt3__16localeD1Ev
	mov	al, byte ptr [rbp - 57] ## 1-byte Reload
	movsx	eax, al
	add	rsp, 64
	pop	rbp
	ret
LBB58_3:
Ltmp138:
                                        ## kill: def $edx killed $edx killed $rdx
	mov	qword ptr [rbp - 32], rax
	mov	dword ptr [rbp - 36], edx
	lea	rdi, [rbp - 24]
	call	__ZNSt3__16localeD1Ev
## %bb.4:
	mov	rdi, qword ptr [rbp - 32]
	call	__Unwind_Resume
	ud2
Lfunc_end6:
	.cfi_endproc
	.section	__TEXT,__gcc_except_tab
	.p2align	2
GCC_except_table58:
Lexception6:
	.byte	255                     ## @LPStart Encoding = omit
	.byte	255                     ## @TType Encoding = omit
	.byte	1                       ## Call site Encoding = uleb128
	.uleb128 Lcst_end6-Lcst_begin6
Lcst_begin6:
	.uleb128 Lfunc_begin6-Lfunc_begin6 ## >> Call Site 1 <<
	.uleb128 Ltmp134-Lfunc_begin6   ##   Call between Lfunc_begin6 and Ltmp134
	.byte	0                       ##     has no landing pad
	.byte	0                       ##   On action: cleanup
	.uleb128 Ltmp134-Lfunc_begin6   ## >> Call Site 2 <<
	.uleb128 Ltmp137-Ltmp134        ##   Call between Ltmp134 and Ltmp137
	.uleb128 Ltmp138-Lfunc_begin6   ##     jumps to Ltmp138
	.byte	0                       ##   On action: cleanup
	.uleb128 Ltmp137-Lfunc_begin6   ## >> Call Site 3 <<
	.uleb128 Lfunc_end6-Ltmp137     ##   Call between Ltmp137 and Lfunc_end6
	.byte	0                       ##     has no landing pad
	.byte	0                       ##   On action: cleanup
Lcst_end6:
	.p2align	2
                                        ## -- End function
	.section	__TEXT,__text,regular,pure_instructions
	.p2align	4, 0x90         ## -- Begin function _ZNSt3__1L9use_facetINS_5ctypeIcEEEERKT_RKNS_6localeE
__ZNSt3__1L9use_facetINS_5ctypeIcEEEERKT_RKNS_6localeE: ## @_ZNSt3__1L9use_facetINS_5ctypeIcEEEERKT_RKNS_6localeE
	.cfi_startproc
## %bb.0:
	push	rbp
	.cfi_def_cfa_offset 16
	.cfi_offset rbp, -16
	mov	rbp, rsp
	.cfi_def_cfa_register rbp
	sub	rsp, 16
	mov	rsi, qword ptr [rip + __ZNSt3__15ctypeIcE2idE@GOTPCREL]
	mov	qword ptr [rbp - 8], rdi
	mov	rdi, qword ptr [rbp - 8]
	call	__ZNKSt3__16locale9use_facetERNS0_2idE
	add	rsp, 16
	pop	rbp
	ret
	.cfi_endproc
                                        ## -- End function
	.p2align	4, 0x90         ## -- Begin function _ZNKSt3__15ctypeIcE5widenEc
__ZNKSt3__15ctypeIcE5widenEc:           ## @_ZNKSt3__15ctypeIcE5widenEc
	.cfi_startproc
## %bb.0:
	push	rbp
	.cfi_def_cfa_offset 16
	.cfi_offset rbp, -16
	mov	rbp, rsp
	.cfi_def_cfa_register rbp
	sub	rsp, 16
                                        ## kill: def $sil killed $sil killed $esi
	mov	qword ptr [rbp - 8], rdi
	mov	byte ptr [rbp - 9], sil
	mov	rax, qword ptr [rbp - 8]
	mov	cl, byte ptr [rbp - 9]
	mov	rdx, qword ptr [rax]
	mov	rdi, rax
	movsx	esi, cl
	call	qword ptr [rdx + 56]
	movsx	eax, al
	add	rsp, 16
	pop	rbp
	ret
	.cfi_endproc
                                        ## -- End function
	.p2align	4, 0x90         ## -- Begin function _ZNSt3__18ios_base8setstateEj
__ZNSt3__18ios_base8setstateEj:         ## @_ZNSt3__18ios_base8setstateEj
	.cfi_startproc
## %bb.0:
	push	rbp
	.cfi_def_cfa_offset 16
	.cfi_offset rbp, -16
	mov	rbp, rsp
	.cfi_def_cfa_register rbp
	sub	rsp, 16
	mov	qword ptr [rbp - 8], rdi
	mov	dword ptr [rbp - 12], esi
	mov	rax, qword ptr [rbp - 8]
	mov	ecx, dword ptr [rax + 32]
	or	ecx, dword ptr [rbp - 12]
	mov	rdi, rax
	mov	esi, ecx
	call	__ZNSt3__18ios_base5clearEj
	add	rsp, 16
	pop	rbp
	ret
	.cfi_endproc
                                        ## -- End function
	.p2align	4, 0x90         ## -- Begin function _ZNSt3__1L16__to_raw_pointerIKcEEPT_S3_
__ZNSt3__1L16__to_raw_pointerIKcEEPT_S3_: ## @_ZNSt3__1L16__to_raw_pointerIKcEEPT_S3_
	.cfi_startproc
## %bb.0:
	push	rbp
	.cfi_def_cfa_offset 16
	.cfi_offset rbp, -16
	mov	rbp, rsp
	.cfi_def_cfa_register rbp
	mov	qword ptr [rbp - 8], rdi
	mov	rax, qword ptr [rbp - 8]
	pop	rbp
	ret
	.cfi_endproc
                                        ## -- End function
	.p2align	4, 0x90         ## -- Begin function _ZNKSt3__112basic_stringIcNS_11char_traitsIcEENS_9allocatorIcEEE13__get_pointerEv
__ZNKSt3__112basic_stringIcNS_11char_traitsIcEENS_9allocatorIcEEE13__get_pointerEv: ## @_ZNKSt3__112basic_stringIcNS_11char_traitsIcEENS_9allocatorIcEEE13__get_pointerEv
	.cfi_startproc
## %bb.0:
	push	rbp
	.cfi_def_cfa_offset 16
	.cfi_offset rbp, -16
	mov	rbp, rsp
	.cfi_def_cfa_register rbp
	sub	rsp, 32
	mov	qword ptr [rbp - 8], rdi
	mov	rax, qword ptr [rbp - 8]
	mov	rdi, rax
	mov	qword ptr [rbp - 16], rax ## 8-byte Spill
	call	__ZNKSt3__112basic_stringIcNS_11char_traitsIcEENS_9allocatorIcEEE9__is_longEv
	test	al, 1
	jne	LBB63_1
	jmp	LBB63_2
LBB63_1:
	mov	rdi, qword ptr [rbp - 16] ## 8-byte Reload
	call	__ZNKSt3__112basic_stringIcNS_11char_traitsIcEENS_9allocatorIcEEE18__get_long_pointerEv
	mov	qword ptr [rbp - 24], rax ## 8-byte Spill
	jmp	LBB63_3
LBB63_2:
	mov	rdi, qword ptr [rbp - 16] ## 8-byte Reload
	call	__ZNKSt3__112basic_stringIcNS_11char_traitsIcEENS_9allocatorIcEEE19__get_short_pointerEv
	mov	qword ptr [rbp - 24], rax ## 8-byte Spill
LBB63_3:
	mov	rax, qword ptr [rbp - 24] ## 8-byte Reload
	add	rsp, 32
	pop	rbp
	ret
	.cfi_endproc
                                        ## -- End function
	.p2align	4, 0x90         ## -- Begin function _ZNKSt3__112basic_stringIcNS_11char_traitsIcEENS_9allocatorIcEEE18__get_long_pointerEv
__ZNKSt3__112basic_stringIcNS_11char_traitsIcEENS_9allocatorIcEEE18__get_long_pointerEv: ## @_ZNKSt3__112basic_stringIcNS_11char_traitsIcEENS_9allocatorIcEEE18__get_long_pointerEv
	.cfi_startproc
## %bb.0:
	push	rbp
	.cfi_def_cfa_offset 16
	.cfi_offset rbp, -16
	mov	rbp, rsp
	.cfi_def_cfa_register rbp
	sub	rsp, 16
	mov	qword ptr [rbp - 8], rdi
	mov	rdi, qword ptr [rbp - 8]
	call	__ZNKSt3__117__compressed_pairINS_12basic_stringIcNS_11char_traitsIcEENS_9allocatorIcEEE5__repES5_E5firstEv
	mov	rax, qword ptr [rax + 16]
	add	rsp, 16
	pop	rbp
	ret
	.cfi_endproc
                                        ## -- End function
	.p2align	4, 0x90         ## -- Begin function _ZNKSt3__112basic_stringIcNS_11char_traitsIcEENS_9allocatorIcEEE19__get_short_pointerEv
__ZNKSt3__112basic_stringIcNS_11char_traitsIcEENS_9allocatorIcEEE19__get_short_pointerEv: ## @_ZNKSt3__112basic_stringIcNS_11char_traitsIcEENS_9allocatorIcEEE19__get_short_pointerEv
	.cfi_startproc
## %bb.0:
	push	rbp
	.cfi_def_cfa_offset 16
	.cfi_offset rbp, -16
	mov	rbp, rsp
	.cfi_def_cfa_register rbp
	sub	rsp, 16
	mov	qword ptr [rbp - 8], rdi
	mov	rdi, qword ptr [rbp - 8]
	call	__ZNKSt3__117__compressed_pairINS_12basic_stringIcNS_11char_traitsIcEENS_9allocatorIcEEE5__repES5_E5firstEv
	add	rax, 1
	mov	rdi, rax
	call	__ZNSt3__114pointer_traitsIPKcE10pointer_toERS1_
	add	rsp, 16
	pop	rbp
	ret
	.cfi_endproc
                                        ## -- End function
	.p2align	4, 0x90         ## -- Begin function _ZNSt3__114pointer_traitsIPKcE10pointer_toERS1_
__ZNSt3__114pointer_traitsIPKcE10pointer_toERS1_: ## @_ZNSt3__114pointer_traitsIPKcE10pointer_toERS1_
	.cfi_startproc
## %bb.0:
	push	rbp
	.cfi_def_cfa_offset 16
	.cfi_offset rbp, -16
	mov	rbp, rsp
	.cfi_def_cfa_register rbp
	sub	rsp, 16
	mov	qword ptr [rbp - 8], rdi
	mov	rdi, qword ptr [rbp - 8]
	call	__ZNSt3__1L9addressofIKcEEPT_RS2_
	add	rsp, 16
	pop	rbp
	ret
	.cfi_endproc
                                        ## -- End function
	.p2align	4, 0x90         ## -- Begin function _ZNSt3__1L9addressofIKcEEPT_RS2_
__ZNSt3__1L9addressofIKcEEPT_RS2_:      ## @_ZNSt3__1L9addressofIKcEEPT_RS2_
	.cfi_startproc
## %bb.0:
	push	rbp
	.cfi_def_cfa_offset 16
	.cfi_offset rbp, -16
	mov	rbp, rsp
	.cfi_def_cfa_register rbp
	mov	qword ptr [rbp - 8], rdi
	mov	rax, qword ptr [rbp - 8]
	pop	rbp
	ret
	.cfi_endproc
                                        ## -- End function
	.p2align	4, 0x90         ## -- Begin function _ZNKSt3__112basic_stringIcNS_11char_traitsIcEENS_9allocatorIcEEE15__get_long_sizeEv
__ZNKSt3__112basic_stringIcNS_11char_traitsIcEENS_9allocatorIcEEE15__get_long_sizeEv: ## @_ZNKSt3__112basic_stringIcNS_11char_traitsIcEENS_9allocatorIcEEE15__get_long_sizeEv
	.cfi_startproc
## %bb.0:
	push	rbp
	.cfi_def_cfa_offset 16
	.cfi_offset rbp, -16
	mov	rbp, rsp
	.cfi_def_cfa_register rbp
	sub	rsp, 16
	mov	qword ptr [rbp - 8], rdi
	mov	rdi, qword ptr [rbp - 8]
	call	__ZNKSt3__117__compressed_pairINS_12basic_stringIcNS_11char_traitsIcEENS_9allocatorIcEEE5__repES5_E5firstEv
	mov	rax, qword ptr [rax + 8]
	add	rsp, 16
	pop	rbp
	ret
	.cfi_endproc
                                        ## -- End function
	.p2align	4, 0x90         ## -- Begin function _ZNKSt3__112basic_stringIcNS_11char_traitsIcEENS_9allocatorIcEEE16__get_short_sizeEv
__ZNKSt3__112basic_stringIcNS_11char_traitsIcEENS_9allocatorIcEEE16__get_short_sizeEv: ## @_ZNKSt3__112basic_stringIcNS_11char_traitsIcEENS_9allocatorIcEEE16__get_short_sizeEv
	.cfi_startproc
## %bb.0:
	push	rbp
	.cfi_def_cfa_offset 16
	.cfi_offset rbp, -16
	mov	rbp, rsp
	.cfi_def_cfa_register rbp
	sub	rsp, 16
	mov	qword ptr [rbp - 8], rdi
	mov	rdi, qword ptr [rbp - 8]
	call	__ZNKSt3__117__compressed_pairINS_12basic_stringIcNS_11char_traitsIcEENS_9allocatorIcEEE5__repES5_E5firstEv
	movzx	ecx, byte ptr [rax]
	sar	ecx, 1
	movsxd	rax, ecx
	add	rsp, 16
	pop	rbp
	ret
	.cfi_endproc
                                        ## -- End function
	.globl	__ZN10Reltt_InfoD2Ev    ## -- Begin function _ZN10Reltt_InfoD2Ev
	.weak_def_can_be_hidden	__ZN10Reltt_InfoD2Ev
	.p2align	4, 0x90
__ZN10Reltt_InfoD2Ev:                   ## @_ZN10Reltt_InfoD2Ev
	.cfi_startproc
## %bb.0:
	push	rbp
	.cfi_def_cfa_offset 16
	.cfi_offset rbp, -16
	mov	rbp, rsp
	.cfi_def_cfa_register rbp
	sub	rsp, 16
	mov	qword ptr [rbp - 8], rdi
	mov	rax, qword ptr [rbp - 8]
	mov	rcx, rax
	add	rcx, 24
	mov	rdi, rcx
	mov	qword ptr [rbp - 16], rax ## 8-byte Spill
	call	__ZNSt3__112basic_stringIcNS_11char_traitsIcEENS_9allocatorIcEEED1Ev
	mov	rdi, qword ptr [rbp - 16] ## 8-byte Reload
	call	__ZNSt3__112basic_stringIcNS_11char_traitsIcEENS_9allocatorIcEEED1Ev
	add	rsp, 16
	pop	rbp
	ret
	.cfi_endproc
                                        ## -- End function
	.globl	__ZN9Reltt_INTC2Ev      ## -- Begin function _ZN9Reltt_INTC2Ev
	.weak_def_can_be_hidden	__ZN9Reltt_INTC2Ev
	.p2align	4, 0x90
__ZN9Reltt_INTC2Ev:                     ## @_ZN9Reltt_INTC2Ev
Lfunc_begin7:
	.cfi_startproc
	.cfi_personality 155, ___gxx_personality_v0
	.cfi_lsda 16, Lexception7
## %bb.0:
	push	rbp
	.cfi_def_cfa_offset 16
	.cfi_offset rbp, -16
	mov	rbp, rsp
	.cfi_def_cfa_register rbp
	sub	rsp, 320
	mov	qword ptr [rbp - 8], rdi
	mov	rax, qword ptr [rbp - 8]
	mov	rcx, rax
	mov	rdi, rax
	mov	qword ptr [rbp - 168], rax ## 8-byte Spill
	mov	qword ptr [rbp - 176], rcx ## 8-byte Spill
	call	__ZNSt3__16vectorI11instructionNS_9allocatorIS1_EEEC1Ev
	mov	rax, qword ptr [rbp - 168] ## 8-byte Reload
	add	rax, 24
	mov	rdi, rax
	mov	qword ptr [rbp - 184], rax ## 8-byte Spill
	call	__ZNSt3__16vectorI3appNS_9allocatorIS1_EEEC1Ev
	mov	rax, qword ptr [rbp - 168] ## 8-byte Reload
	add	rax, 48
	mov	rdi, rax
	mov	qword ptr [rbp - 192], rax ## 8-byte Spill
	call	__ZNSt3__16vectorI11UD_FunctionNS_9allocatorIS1_EEEC1Ev
	mov	rax, qword ptr [rbp - 168] ## 8-byte Reload
	mov	dword ptr [rax + 72], 0
	add	rax, 80
	mov	rdi, rax
	mov	qword ptr [rbp - 200], rax ## 8-byte Spill
	call	__ZNSt3__16vectorIN9Reltt_INT16CallableOperatorENS_9allocatorIS2_EEEC1Ev
	mov	rax, qword ptr [rbp - 168] ## 8-byte Reload
	add	rax, 104
	mov	rdi, rax
	mov	qword ptr [rbp - 208], rax ## 8-byte Spill
	call	__ZNSt3__16vectorIN9Reltt_INT10QSRcModuleENS_9allocatorIS2_EEEC1Ev
	mov	rax, qword ptr [rbp - 168] ## 8-byte Reload
	sub	rax, -128
	mov	rdi, rax
	mov	qword ptr [rbp - 216], rax ## 8-byte Spill
	call	__ZNSt3__16vectorIN9Reltt_INT11CallableObjENS_9allocatorIS2_EEEC1Ev
	mov	rax, qword ptr [rbp - 168] ## 8-byte Reload
	mov	dword ptr [rax + 152], -2
	add	rax, 160
Ltmp139:
	lea	rsi, [rip + L_.str.18]
	lea	rdi, [rbp - 32]
	mov	qword ptr [rbp - 224], rax ## 8-byte Spill
	call	__ZNSt3__112basic_stringIcNS_11char_traitsIcEENS_9allocatorIcEEEC1IDnEEPKc
Ltmp140:
	jmp	LBB71_1
LBB71_1:
Ltmp142:
	lea	rsi, [rbp - 32]
	xor	edx, edx
	mov	rdi, qword ptr [rbp - 224] ## 8-byte Reload
	call	__ZN5ValueC1ENSt3__112basic_stringIcNS0_11char_traitsIcEENS0_9allocatorIcEEEEi
Ltmp143:
	jmp	LBB71_2
LBB71_2:
	lea	rdi, [rbp - 32]
	call	__ZNSt3__112basic_stringIcNS_11char_traitsIcEENS_9allocatorIcEEED1Ev
	mov	rax, qword ptr [rbp - 176] ## 8-byte Reload
	mov	dword ptr [rax + 240], 0
	mov	dword ptr [rax + 244], 0
	add	rax, 248
	mov	rdi, rax
	mov	qword ptr [rbp - 232], rax ## 8-byte Spill
	call	__ZNSt3__16vectorIP12func_INS_VarNS_9allocatorIS2_EEEC1Ev
	mov	rax, qword ptr [rbp - 176] ## 8-byte Reload
	add	rax, 272
	mov	rdi, rax
	mov	qword ptr [rbp - 240], rax ## 8-byte Spill
	call	__ZNSt3__16vectorIN9Reltt_INT3FncENS_9allocatorIS2_EEEC1Ev
	mov	rax, qword ptr [rbp - 176] ## 8-byte Reload
	mov	dword ptr [rax + 296], 0
	add	rax, 304
Ltmp145:
	mov	rdi, rax
	mov	qword ptr [rbp - 248], rax ## 8-byte Spill
	call	__ZN12ConfiguratorC1Ev
Ltmp146:
	jmp	LBB71_3
LBB71_3:
	mov	rax, qword ptr [rbp - 176] ## 8-byte Reload
	add	rax, 376
	mov	rdi, rax
	mov	qword ptr [rbp - 256], rax ## 8-byte Spill
	call	__ZNSt3__16vectorIiNS_9allocatorIiEEEC1Ev
	mov	rax, qword ptr [rbp - 176] ## 8-byte Reload
	add	rax, 400
	mov	rdi, rax
	mov	qword ptr [rbp - 264], rax ## 8-byte Spill
	call	__ZNSt3__16vectorINS_12basic_stringIcNS_11char_traitsIcEENS_9allocatorIcEEEENS4_IS6_EEEC1Ev
Ltmp148:
	mov	rdi, qword ptr [rbp - 176] ## 8-byte Reload
	call	__ZN9Reltt_INT9init_FuncEv
Ltmp149:
	jmp	LBB71_4
LBB71_4:
Ltmp150:
	lea	rdi, [rbp - 112]
	call	__ZN12ConfiguratorC1Ev
Ltmp151:
	jmp	LBB71_5
LBB71_5:
	mov	rax, qword ptr [rbp - 176] ## 8-byte Reload
	add	rax, 304
	lea	rcx, [rbp - 112]
	mov	rdi, rax
	mov	rsi, rcx
	mov	qword ptr [rbp - 272], rcx ## 8-byte Spill
	call	__ZN12ConfiguratoraSEOS_
	mov	rdi, qword ptr [rbp - 272] ## 8-byte Reload
	mov	qword ptr [rbp - 280], rax ## 8-byte Spill
	call	__ZN12ConfiguratorD1Ev
Ltmp152:
	mov	edi, 32
	call	__Znwm
Ltmp153:
	mov	qword ptr [rbp - 288], rax ## 8-byte Spill
	jmp	LBB71_6
LBB71_6:
	mov	rax, qword ptr [rbp - 288] ## 8-byte Reload
Ltmp154:
	mov	rdi, qword ptr [rbp - 288] ## 8-byte Reload
	mov	qword ptr [rbp - 296], rax ## 8-byte Spill
	call	__ZN12func_INS_VarC1Ev
Ltmp155:
	jmp	LBB71_7
LBB71_7:
	mov	rax, qword ptr [rbp - 296] ## 8-byte Reload
	mov	qword ptr [rbp - 120], rax
Ltmp157:
	mov	edi, 80
	call	__Znwm
Ltmp158:
	mov	qword ptr [rbp - 304], rax ## 8-byte Spill
	jmp	LBB71_8
LBB71_8:
	mov	byte ptr [rbp - 153], 1
	mov	rax, qword ptr [rbp - 304] ## 8-byte Reload
Ltmp159:
	lea	rsi, [rip + L_.str.18]
	lea	rdi, [rbp - 152]
	mov	qword ptr [rbp - 312], rax ## 8-byte Spill
	call	__ZNSt3__112basic_stringIcNS_11char_traitsIcEENS_9allocatorIcEEEC1IDnEEPKc
Ltmp160:
	jmp	LBB71_9
LBB71_9:
Ltmp162:
	lea	rsi, [rbp - 152]
	xor	edx, edx
	mov	rdi, qword ptr [rbp - 312] ## 8-byte Reload
	call	__ZN5ValueC1ENSt3__112basic_stringIcNS0_11char_traitsIcEENS0_9allocatorIcEEEEi
Ltmp163:
	jmp	LBB71_10
LBB71_10:
	mov	byte ptr [rbp - 153], 0
	lea	rdi, [rbp - 152]
	call	__ZNSt3__112basic_stringIcNS_11char_traitsIcEENS_9allocatorIcEEED1Ev
	mov	rax, qword ptr [rbp - 312] ## 8-byte Reload
	mov	qword ptr [rbp - 128], rax
	mov	rcx, qword ptr [rbp - 120]
	add	rcx, 8
Ltmp165:
	lea	rsi, [rbp - 128]
	mov	rdi, rcx
	call	__ZNSt3__16vectorIP5ValueNS_9allocatorIS2_EEE9push_backERKS2_
Ltmp166:
	jmp	LBB71_11
LBB71_11:
	mov	rax, qword ptr [rbp - 176] ## 8-byte Reload
	add	rax, 248
Ltmp167:
	lea	rsi, [rbp - 120]
	mov	rdi, rax
	call	__ZNSt3__16vectorIP12func_INS_VarNS_9allocatorIS2_EEE9push_backERKS2_
Ltmp168:
	jmp	LBB71_12
LBB71_12:
	add	rsp, 320
	pop	rbp
	ret
LBB71_13:
Ltmp141:
                                        ## kill: def $edx killed $edx killed $rdx
	mov	qword ptr [rbp - 40], rax
	mov	dword ptr [rbp - 44], edx
	jmp	LBB71_25
LBB71_14:
Ltmp144:
                                        ## kill: def $edx killed $edx killed $rdx
	mov	qword ptr [rbp - 40], rax
	mov	dword ptr [rbp - 44], edx
	lea	rdi, [rbp - 32]
	call	__ZNSt3__112basic_stringIcNS_11char_traitsIcEENS_9allocatorIcEEED1Ev
	jmp	LBB71_25
LBB71_15:
Ltmp147:
                                        ## kill: def $edx killed $edx killed $rdx
	mov	qword ptr [rbp - 40], rax
	mov	dword ptr [rbp - 44], edx
	jmp	LBB71_24
LBB71_16:
Ltmp169:
                                        ## kill: def $edx killed $edx killed $rdx
	mov	qword ptr [rbp - 40], rax
	mov	dword ptr [rbp - 44], edx
	jmp	LBB71_23
LBB71_17:
Ltmp156:
                                        ## kill: def $edx killed $edx killed $rdx
	mov	qword ptr [rbp - 40], rax
	mov	dword ptr [rbp - 44], edx
	mov	rdi, qword ptr [rbp - 288] ## 8-byte Reload
	call	__ZdlPv
	jmp	LBB71_23
LBB71_18:
Ltmp161:
                                        ## kill: def $edx killed $edx killed $rdx
	mov	qword ptr [rbp - 40], rax
	mov	dword ptr [rbp - 44], edx
	jmp	LBB71_20
LBB71_19:
Ltmp164:
                                        ## kill: def $edx killed $edx killed $rdx
	mov	qword ptr [rbp - 40], rax
	mov	dword ptr [rbp - 44], edx
	lea	rdi, [rbp - 152]
	call	__ZNSt3__112basic_stringIcNS_11char_traitsIcEENS_9allocatorIcEEED1Ev
LBB71_20:
	test	byte ptr [rbp - 153], 1
	jne	LBB71_21
	jmp	LBB71_22
LBB71_21:
	mov	rdi, qword ptr [rbp - 304] ## 8-byte Reload
	call	__ZdlPv
LBB71_22:
	jmp	LBB71_23
LBB71_23:
	mov	rdi, qword ptr [rbp - 264] ## 8-byte Reload
	call	__ZNSt3__16vectorINS_12basic_stringIcNS_11char_traitsIcEENS_9allocatorIcEEEENS4_IS6_EEED1Ev
	mov	rdi, qword ptr [rbp - 256] ## 8-byte Reload
	call	__ZNSt3__16vectorIiNS_9allocatorIiEEED1Ev
	mov	rdi, qword ptr [rbp - 248] ## 8-byte Reload
	call	__ZN12ConfiguratorD1Ev
LBB71_24:
	mov	rdi, qword ptr [rbp - 240] ## 8-byte Reload
	call	__ZNSt3__16vectorIN9Reltt_INT3FncENS_9allocatorIS2_EEED1Ev
	mov	rdi, qword ptr [rbp - 232] ## 8-byte Reload
	call	__ZNSt3__16vectorIP12func_INS_VarNS_9allocatorIS2_EEED1Ev
	mov	rdi, qword ptr [rbp - 224] ## 8-byte Reload
	call	__ZN5ValueD1Ev
LBB71_25:
	mov	rdi, qword ptr [rbp - 216] ## 8-byte Reload
	call	__ZNSt3__16vectorIN9Reltt_INT11CallableObjENS_9allocatorIS2_EEED1Ev
	mov	rdi, qword ptr [rbp - 208] ## 8-byte Reload
	call	__ZNSt3__16vectorIN9Reltt_INT10QSRcModuleENS_9allocatorIS2_EEED1Ev
	mov	rdi, qword ptr [rbp - 200] ## 8-byte Reload
	call	__ZNSt3__16vectorIN9Reltt_INT16CallableOperatorENS_9allocatorIS2_EEED1Ev
	mov	rdi, qword ptr [rbp - 192] ## 8-byte Reload
	call	__ZNSt3__16vectorI11UD_FunctionNS_9allocatorIS1_EEED1Ev
	mov	rdi, qword ptr [rbp - 184] ## 8-byte Reload
	call	__ZNSt3__16vectorI3appNS_9allocatorIS1_EEED1Ev
	mov	rdi, qword ptr [rbp - 168] ## 8-byte Reload
	call	__ZNSt3__16vectorI11instructionNS_9allocatorIS1_EEED1Ev
## %bb.26:
	mov	rdi, qword ptr [rbp - 40]
	call	__Unwind_Resume
	ud2
Lfunc_end7:
	.cfi_endproc
	.section	__TEXT,__gcc_except_tab
	.p2align	2
GCC_except_table71:
Lexception7:
	.byte	255                     ## @LPStart Encoding = omit
	.byte	255                     ## @TType Encoding = omit
	.byte	1                       ## Call site Encoding = uleb128
	.uleb128 Lcst_end7-Lcst_begin7
Lcst_begin7:
	.uleb128 Ltmp139-Lfunc_begin7   ## >> Call Site 1 <<
	.uleb128 Ltmp140-Ltmp139        ##   Call between Ltmp139 and Ltmp140
	.uleb128 Ltmp141-Lfunc_begin7   ##     jumps to Ltmp141
	.byte	0                       ##   On action: cleanup
	.uleb128 Ltmp142-Lfunc_begin7   ## >> Call Site 2 <<
	.uleb128 Ltmp143-Ltmp142        ##   Call between Ltmp142 and Ltmp143
	.uleb128 Ltmp144-Lfunc_begin7   ##     jumps to Ltmp144
	.byte	0                       ##   On action: cleanup
	.uleb128 Ltmp145-Lfunc_begin7   ## >> Call Site 3 <<
	.uleb128 Ltmp146-Ltmp145        ##   Call between Ltmp145 and Ltmp146
	.uleb128 Ltmp147-Lfunc_begin7   ##     jumps to Ltmp147
	.byte	0                       ##   On action: cleanup
	.uleb128 Ltmp148-Lfunc_begin7   ## >> Call Site 4 <<
	.uleb128 Ltmp153-Ltmp148        ##   Call between Ltmp148 and Ltmp153
	.uleb128 Ltmp169-Lfunc_begin7   ##     jumps to Ltmp169
	.byte	0                       ##   On action: cleanup
	.uleb128 Ltmp154-Lfunc_begin7   ## >> Call Site 5 <<
	.uleb128 Ltmp155-Ltmp154        ##   Call between Ltmp154 and Ltmp155
	.uleb128 Ltmp156-Lfunc_begin7   ##     jumps to Ltmp156
	.byte	0                       ##   On action: cleanup
	.uleb128 Ltmp157-Lfunc_begin7   ## >> Call Site 6 <<
	.uleb128 Ltmp158-Ltmp157        ##   Call between Ltmp157 and Ltmp158
	.uleb128 Ltmp169-Lfunc_begin7   ##     jumps to Ltmp169
	.byte	0                       ##   On action: cleanup
	.uleb128 Ltmp159-Lfunc_begin7   ## >> Call Site 7 <<
	.uleb128 Ltmp160-Ltmp159        ##   Call between Ltmp159 and Ltmp160
	.uleb128 Ltmp161-Lfunc_begin7   ##     jumps to Ltmp161
	.byte	0                       ##   On action: cleanup
	.uleb128 Ltmp162-Lfunc_begin7   ## >> Call Site 8 <<
	.uleb128 Ltmp163-Ltmp162        ##   Call between Ltmp162 and Ltmp163
	.uleb128 Ltmp164-Lfunc_begin7   ##     jumps to Ltmp164
	.byte	0                       ##   On action: cleanup
	.uleb128 Ltmp165-Lfunc_begin7   ## >> Call Site 9 <<
	.uleb128 Ltmp168-Ltmp165        ##   Call between Ltmp165 and Ltmp168
	.uleb128 Ltmp169-Lfunc_begin7   ##     jumps to Ltmp169
	.byte	0                       ##   On action: cleanup
	.uleb128 Ltmp168-Lfunc_begin7   ## >> Call Site 10 <<
	.uleb128 Lfunc_end7-Ltmp168     ##   Call between Ltmp168 and Lfunc_end7
	.byte	0                       ##     has no landing pad
	.byte	0                       ##   On action: cleanup
Lcst_end7:
	.p2align	2
                                        ## -- End function
	.section	__TEXT,__text,regular,pure_instructions
	.p2align	4, 0x90         ## -- Begin function _ZNSt3__16vectorI11instructionNS_9allocatorIS1_EEEC1Ev
__ZNSt3__16vectorI11instructionNS_9allocatorIS1_EEEC1Ev: ## @_ZNSt3__16vectorI11instructionNS_9allocatorIS1_EEEC1Ev
	.cfi_startproc
## %bb.0:
	push	rbp
	.cfi_def_cfa_offset 16
	.cfi_offset rbp, -16
	mov	rbp, rsp
	.cfi_def_cfa_register rbp
	sub	rsp, 16
	mov	qword ptr [rbp - 8], rdi
	mov	rdi, qword ptr [rbp - 8]
	call	__ZNSt3__16vectorI11instructionNS_9allocatorIS1_EEEC2Ev
	add	rsp, 16
	pop	rbp
	ret
	.cfi_endproc
                                        ## -- End function
	.p2align	4, 0x90         ## -- Begin function _ZNSt3__16vectorI3appNS_9allocatorIS1_EEEC1Ev
__ZNSt3__16vectorI3appNS_9allocatorIS1_EEEC1Ev: ## @_ZNSt3__16vectorI3appNS_9allocatorIS1_EEEC1Ev
	.cfi_startproc
## %bb.0:
	push	rbp
	.cfi_def_cfa_offset 16
	.cfi_offset rbp, -16
	mov	rbp, rsp
	.cfi_def_cfa_register rbp
	sub	rsp, 16
	mov	qword ptr [rbp - 8], rdi
	mov	rdi, qword ptr [rbp - 8]
	call	__ZNSt3__16vectorI3appNS_9allocatorIS1_EEEC2Ev
	add	rsp, 16
	pop	rbp
	ret
	.cfi_endproc
                                        ## -- End function
	.p2align	4, 0x90         ## -- Begin function _ZNSt3__16vectorI11UD_FunctionNS_9allocatorIS1_EEEC1Ev
__ZNSt3__16vectorI11UD_FunctionNS_9allocatorIS1_EEEC1Ev: ## @_ZNSt3__16vectorI11UD_FunctionNS_9allocatorIS1_EEEC1Ev
	.cfi_startproc
## %bb.0:
	push	rbp
	.cfi_def_cfa_offset 16
	.cfi_offset rbp, -16
	mov	rbp, rsp
	.cfi_def_cfa_register rbp
	sub	rsp, 16
	mov	qword ptr [rbp - 8], rdi
	mov	rdi, qword ptr [rbp - 8]
	call	__ZNSt3__16vectorI11UD_FunctionNS_9allocatorIS1_EEEC2Ev
	add	rsp, 16
	pop	rbp
	ret
	.cfi_endproc
                                        ## -- End function
	.p2align	4, 0x90         ## -- Begin function _ZNSt3__16vectorIN9Reltt_INT16CallableOperatorENS_9allocatorIS2_EEEC1Ev
__ZNSt3__16vectorIN9Reltt_INT16CallableOperatorENS_9allocatorIS2_EEEC1Ev: ## @_ZNSt3__16vectorIN9Reltt_INT16CallableOperatorENS_9allocatorIS2_EEEC1Ev
	.cfi_startproc
## %bb.0:
	push	rbp
	.cfi_def_cfa_offset 16
	.cfi_offset rbp, -16
	mov	rbp, rsp
	.cfi_def_cfa_register rbp
	sub	rsp, 16
	mov	qword ptr [rbp - 8], rdi
	mov	rdi, qword ptr [rbp - 8]
	call	__ZNSt3__16vectorIN9Reltt_INT16CallableOperatorENS_9allocatorIS2_EEEC2Ev
	add	rsp, 16
	pop	rbp
	ret
	.cfi_endproc
                                        ## -- End function
	.p2align	4, 0x90         ## -- Begin function _ZNSt3__16vectorIN9Reltt_INT10QSRcModuleENS_9allocatorIS2_EEEC1Ev
__ZNSt3__16vectorIN9Reltt_INT10QSRcModuleENS_9allocatorIS2_EEEC1Ev: ## @_ZNSt3__16vectorIN9Reltt_INT10QSRcModuleENS_9allocatorIS2_EEEC1Ev
	.cfi_startproc
## %bb.0:
	push	rbp
	.cfi_def_cfa_offset 16
	.cfi_offset rbp, -16
	mov	rbp, rsp
	.cfi_def_cfa_register rbp
	sub	rsp, 16
	mov	qword ptr [rbp - 8], rdi
	mov	rdi, qword ptr [rbp - 8]
	call	__ZNSt3__16vectorIN9Reltt_INT10QSRcModuleENS_9allocatorIS2_EEEC2Ev
	add	rsp, 16
	pop	rbp
	ret
	.cfi_endproc
                                        ## -- End function
	.p2align	4, 0x90         ## -- Begin function _ZNSt3__16vectorIN9Reltt_INT11CallableObjENS_9allocatorIS2_EEEC1Ev
__ZNSt3__16vectorIN9Reltt_INT11CallableObjENS_9allocatorIS2_EEEC1Ev: ## @_ZNSt3__16vectorIN9Reltt_INT11CallableObjENS_9allocatorIS2_EEEC1Ev
	.cfi_startproc
## %bb.0:
	push	rbp
	.cfi_def_cfa_offset 16
	.cfi_offset rbp, -16
	mov	rbp, rsp
	.cfi_def_cfa_register rbp
	sub	rsp, 16
	mov	qword ptr [rbp - 8], rdi
	mov	rdi, qword ptr [rbp - 8]
	call	__ZNSt3__16vectorIN9Reltt_INT11CallableObjENS_9allocatorIS2_EEEC2Ev
	add	rsp, 16
	pop	rbp
	ret
	.cfi_endproc
                                        ## -- End function
	.p2align	4, 0x90         ## -- Begin function _ZNSt3__16vectorIP12func_INS_VarNS_9allocatorIS2_EEEC1Ev
__ZNSt3__16vectorIP12func_INS_VarNS_9allocatorIS2_EEEC1Ev: ## @_ZNSt3__16vectorIP12func_INS_VarNS_9allocatorIS2_EEEC1Ev
	.cfi_startproc
## %bb.0:
	push	rbp
	.cfi_def_cfa_offset 16
	.cfi_offset rbp, -16
	mov	rbp, rsp
	.cfi_def_cfa_register rbp
	sub	rsp, 16
	mov	qword ptr [rbp - 8], rdi
	mov	rdi, qword ptr [rbp - 8]
	call	__ZNSt3__16vectorIP12func_INS_VarNS_9allocatorIS2_EEEC2Ev
	add	rsp, 16
	pop	rbp
	ret
	.cfi_endproc
                                        ## -- End function
	.p2align	4, 0x90         ## -- Begin function _ZNSt3__16vectorIN9Reltt_INT3FncENS_9allocatorIS2_EEEC1Ev
__ZNSt3__16vectorIN9Reltt_INT3FncENS_9allocatorIS2_EEEC1Ev: ## @_ZNSt3__16vectorIN9Reltt_INT3FncENS_9allocatorIS2_EEEC1Ev
	.cfi_startproc
## %bb.0:
	push	rbp
	.cfi_def_cfa_offset 16
	.cfi_offset rbp, -16
	mov	rbp, rsp
	.cfi_def_cfa_register rbp
	sub	rsp, 16
	mov	qword ptr [rbp - 8], rdi
	mov	rdi, qword ptr [rbp - 8]
	call	__ZNSt3__16vectorIN9Reltt_INT3FncENS_9allocatorIS2_EEEC2Ev
	add	rsp, 16
	pop	rbp
	ret
	.cfi_endproc
                                        ## -- End function
	.p2align	4, 0x90         ## -- Begin function _ZNSt3__16vectorIiNS_9allocatorIiEEEC1Ev
__ZNSt3__16vectorIiNS_9allocatorIiEEEC1Ev: ## @_ZNSt3__16vectorIiNS_9allocatorIiEEEC1Ev
	.cfi_startproc
## %bb.0:
	push	rbp
	.cfi_def_cfa_offset 16
	.cfi_offset rbp, -16
	mov	rbp, rsp
	.cfi_def_cfa_register rbp
	sub	rsp, 16
	mov	qword ptr [rbp - 8], rdi
	mov	rdi, qword ptr [rbp - 8]
	call	__ZNSt3__16vectorIiNS_9allocatorIiEEEC2Ev
	add	rsp, 16
	pop	rbp
	ret
	.cfi_endproc
                                        ## -- End function
	.globl	__ZN12ConfiguratoraSEOS_ ## -- Begin function _ZN12ConfiguratoraSEOS_
	.weak_definition	__ZN12ConfiguratoraSEOS_
	.p2align	4, 0x90
__ZN12ConfiguratoraSEOS_:               ## @_ZN12ConfiguratoraSEOS_
	.cfi_startproc
## %bb.0:
	push	rbp
	.cfi_def_cfa_offset 16
	.cfi_offset rbp, -16
	mov	rbp, rsp
	.cfi_def_cfa_register rbp
	sub	rsp, 48
	mov	qword ptr [rbp - 8], rdi
	mov	qword ptr [rbp - 16], rsi
	mov	rax, qword ptr [rbp - 8]
	mov	rsi, qword ptr [rbp - 16]
	mov	rdi, rax
	mov	qword ptr [rbp - 24], rax ## 8-byte Spill
	call	__ZNSt3__112basic_stringIcNS_11char_traitsIcEENS_9allocatorIcEEEaSEOS5_
	mov	rcx, qword ptr [rbp - 24] ## 8-byte Reload
	add	rcx, 24
	mov	rdx, qword ptr [rbp - 16]
	add	rdx, 24
	mov	rdi, rcx
	mov	rsi, rdx
	mov	qword ptr [rbp - 32], rax ## 8-byte Spill
	call	__ZNSt3__112basic_stringIcNS_11char_traitsIcEENS_9allocatorIcEEEaSEOS5_
	mov	rcx, qword ptr [rbp - 16]
	mov	rdx, qword ptr [rcx + 48]
	mov	rsi, qword ptr [rbp - 24] ## 8-byte Reload
	mov	qword ptr [rsi + 48], rdx
	mov	r8d, dword ptr [rcx + 56]
	mov	dword ptr [rsi + 56], r8d
	mov	r9b, byte ptr [rcx + 60]
	mov	byte ptr [rsi + 60], r9b
	mov	qword ptr [rbp - 40], rax ## 8-byte Spill
	mov	rax, rsi
	add	rsp, 48
	pop	rbp
	ret
	.cfi_endproc
                                        ## -- End function
	.globl	__ZN12ConfiguratorD1Ev  ## -- Begin function _ZN12ConfiguratorD1Ev
	.weak_def_can_be_hidden	__ZN12ConfiguratorD1Ev
	.p2align	4, 0x90
__ZN12ConfiguratorD1Ev:                 ## @_ZN12ConfiguratorD1Ev
	.cfi_startproc
## %bb.0:
	push	rbp
	.cfi_def_cfa_offset 16
	.cfi_offset rbp, -16
	mov	rbp, rsp
	.cfi_def_cfa_register rbp
	sub	rsp, 16
	mov	qword ptr [rbp - 8], rdi
	mov	rdi, qword ptr [rbp - 8]
	call	__ZN12ConfiguratorD2Ev
	add	rsp, 16
	pop	rbp
	ret
	.cfi_endproc
                                        ## -- End function
	.p2align	4, 0x90         ## -- Begin function _ZNSt3__16vectorIP5ValueNS_9allocatorIS2_EEE9push_backERKS2_
__ZNSt3__16vectorIP5ValueNS_9allocatorIS2_EEE9push_backERKS2_: ## @_ZNSt3__16vectorIP5ValueNS_9allocatorIS2_EEE9push_backERKS2_
	.cfi_startproc
## %bb.0:
	push	rbp
	.cfi_def_cfa_offset 16
	.cfi_offset rbp, -16
	mov	rbp, rsp
	.cfi_def_cfa_register rbp
	sub	rsp, 48
	mov	qword ptr [rbp - 8], rdi
	mov	qword ptr [rbp - 16], rsi
	mov	rax, qword ptr [rbp - 8]
	mov	rcx, qword ptr [rax + 8]
	mov	rdx, rax
	mov	rdi, rdx
	mov	qword ptr [rbp - 32], rax ## 8-byte Spill
	mov	qword ptr [rbp - 40], rcx ## 8-byte Spill
	call	__ZNSt3__113__vector_baseIP5ValueNS_9allocatorIS2_EEE9__end_capEv
	mov	rcx, qword ptr [rbp - 40] ## 8-byte Reload
	cmp	rcx, qword ptr [rax]
	je	LBB83_2
## %bb.1:
	lea	rdi, [rbp - 24]
	mov	rsi, qword ptr [rbp - 32] ## 8-byte Reload
	mov	edx, 1
	call	__ZNSt3__16vectorIP5ValueNS_9allocatorIS2_EEE24__RAII_IncreaseAnnotatorC1ERKS5_m
	mov	rax, qword ptr [rbp - 32] ## 8-byte Reload
	mov	rdi, rax
	call	__ZNSt3__113__vector_baseIP5ValueNS_9allocatorIS2_EEE7__allocEv
	mov	rcx, qword ptr [rbp - 32] ## 8-byte Reload
	mov	rdi, qword ptr [rcx + 8]
	mov	qword ptr [rbp - 48], rax ## 8-byte Spill
	call	__ZNSt3__1L16__to_raw_pointerIP5ValueEEPT_S4_
	mov	rdx, qword ptr [rbp - 16]
	mov	rdi, qword ptr [rbp - 48] ## 8-byte Reload
	mov	rsi, rax
	call	__ZNSt3__116allocator_traitsINS_9allocatorIP5ValueEEE9constructIS3_JRKS3_EEEvRS4_PT_DpOT0_
	lea	rdi, [rbp - 24]
	call	__ZNSt3__16vectorIP5ValueNS_9allocatorIS2_EEE24__RAII_IncreaseAnnotator6__doneEv
	mov	rax, qword ptr [rbp - 32] ## 8-byte Reload
	mov	rcx, qword ptr [rax + 8]
	add	rcx, 8
	mov	qword ptr [rax + 8], rcx
	jmp	LBB83_3
LBB83_2:
	mov	rsi, qword ptr [rbp - 16]
	mov	rdi, qword ptr [rbp - 32] ## 8-byte Reload
	call	__ZNSt3__16vectorIP5ValueNS_9allocatorIS2_EEE21__push_back_slow_pathIRKS2_EEvOT_
LBB83_3:
	add	rsp, 48
	pop	rbp
	ret
	.cfi_endproc
                                        ## -- End function
	.p2align	4, 0x90         ## -- Begin function _ZNSt3__16vectorIP12func_INS_VarNS_9allocatorIS2_EEE9push_backERKS2_
__ZNSt3__16vectorIP12func_INS_VarNS_9allocatorIS2_EEE9push_backERKS2_: ## @_ZNSt3__16vectorIP12func_INS_VarNS_9allocatorIS2_EEE9push_backERKS2_
	.cfi_startproc
## %bb.0:
	push	rbp
	.cfi_def_cfa_offset 16
	.cfi_offset rbp, -16
	mov	rbp, rsp
	.cfi_def_cfa_register rbp
	sub	rsp, 48
	mov	qword ptr [rbp - 8], rdi
	mov	qword ptr [rbp - 16], rsi
	mov	rax, qword ptr [rbp - 8]
	mov	rcx, qword ptr [rax + 8]
	mov	rdx, rax
	mov	rdi, rdx
	mov	qword ptr [rbp - 32], rax ## 8-byte Spill
	mov	qword ptr [rbp - 40], rcx ## 8-byte Spill
	call	__ZNSt3__113__vector_baseIP12func_INS_VarNS_9allocatorIS2_EEE9__end_capEv
	mov	rcx, qword ptr [rbp - 40] ## 8-byte Reload
	cmp	rcx, qword ptr [rax]
	je	LBB84_2
## %bb.1:
	lea	rdi, [rbp - 24]
	mov	rsi, qword ptr [rbp - 32] ## 8-byte Reload
	mov	edx, 1
	call	__ZNSt3__16vectorIP12func_INS_VarNS_9allocatorIS2_EEE24__RAII_IncreaseAnnotatorC1ERKS5_m
	mov	rax, qword ptr [rbp - 32] ## 8-byte Reload
	mov	rdi, rax
	call	__ZNSt3__113__vector_baseIP12func_INS_VarNS_9allocatorIS2_EEE7__allocEv
	mov	rcx, qword ptr [rbp - 32] ## 8-byte Reload
	mov	rdi, qword ptr [rcx + 8]
	mov	qword ptr [rbp - 48], rax ## 8-byte Spill
	call	__ZNSt3__1L16__to_raw_pointerIP12func_INS_VarEEPT_S4_
	mov	rdx, qword ptr [rbp - 16]
	mov	rdi, qword ptr [rbp - 48] ## 8-byte Reload
	mov	rsi, rax
	call	__ZNSt3__116allocator_traitsINS_9allocatorIP12func_INS_VarEEE9constructIS3_JRKS3_EEEvRS4_PT_DpOT0_
	lea	rdi, [rbp - 24]
	call	__ZNSt3__16vectorIP12func_INS_VarNS_9allocatorIS2_EEE24__RAII_IncreaseAnnotator6__doneEv
	mov	rax, qword ptr [rbp - 32] ## 8-byte Reload
	mov	rcx, qword ptr [rax + 8]
	add	rcx, 8
	mov	qword ptr [rax + 8], rcx
	jmp	LBB84_3
LBB84_2:
	mov	rsi, qword ptr [rbp - 16]
	mov	rdi, qword ptr [rbp - 32] ## 8-byte Reload
	call	__ZNSt3__16vectorIP12func_INS_VarNS_9allocatorIS2_EEE21__push_back_slow_pathIRKS2_EEvOT_
LBB84_3:
	add	rsp, 48
	pop	rbp
	ret
	.cfi_endproc
                                        ## -- End function
	.p2align	4, 0x90         ## -- Begin function _ZNSt3__16vectorIiNS_9allocatorIiEEED1Ev
__ZNSt3__16vectorIiNS_9allocatorIiEEED1Ev: ## @_ZNSt3__16vectorIiNS_9allocatorIiEEED1Ev
	.cfi_startproc
## %bb.0:
	push	rbp
	.cfi_def_cfa_offset 16
	.cfi_offset rbp, -16
	mov	rbp, rsp
	.cfi_def_cfa_register rbp
	sub	rsp, 16
	mov	qword ptr [rbp - 8], rdi
	mov	rdi, qword ptr [rbp - 8]
	call	__ZNSt3__16vectorIiNS_9allocatorIiEEED2Ev
	add	rsp, 16
	pop	rbp
	ret
	.cfi_endproc
                                        ## -- End function
	.p2align	4, 0x90         ## -- Begin function _ZNSt3__16vectorIN9Reltt_INT3FncENS_9allocatorIS2_EEED1Ev
__ZNSt3__16vectorIN9Reltt_INT3FncENS_9allocatorIS2_EEED1Ev: ## @_ZNSt3__16vectorIN9Reltt_INT3FncENS_9allocatorIS2_EEED1Ev
	.cfi_startproc
## %bb.0:
	push	rbp
	.cfi_def_cfa_offset 16
	.cfi_offset rbp, -16
	mov	rbp, rsp
	.cfi_def_cfa_register rbp
	sub	rsp, 16
	mov	qword ptr [rbp - 8], rdi
	mov	rdi, qword ptr [rbp - 8]
	call	__ZNSt3__16vectorIN9Reltt_INT3FncENS_9allocatorIS2_EEED2Ev
	add	rsp, 16
	pop	rbp
	ret
	.cfi_endproc
                                        ## -- End function
	.p2align	4, 0x90         ## -- Begin function _ZNSt3__16vectorIP12func_INS_VarNS_9allocatorIS2_EEED1Ev
__ZNSt3__16vectorIP12func_INS_VarNS_9allocatorIS2_EEED1Ev: ## @_ZNSt3__16vectorIP12func_INS_VarNS_9allocatorIS2_EEED1Ev
	.cfi_startproc
## %bb.0:
	push	rbp
	.cfi_def_cfa_offset 16
	.cfi_offset rbp, -16
	mov	rbp, rsp
	.cfi_def_cfa_register rbp
	sub	rsp, 16
	mov	qword ptr [rbp - 8], rdi
	mov	rdi, qword ptr [rbp - 8]
	call	__ZNSt3__16vectorIP12func_INS_VarNS_9allocatorIS2_EEED2Ev
	add	rsp, 16
	pop	rbp
	ret
	.cfi_endproc
                                        ## -- End function
	.p2align	4, 0x90         ## -- Begin function _ZNSt3__16vectorIN9Reltt_INT11CallableObjENS_9allocatorIS2_EEED1Ev
__ZNSt3__16vectorIN9Reltt_INT11CallableObjENS_9allocatorIS2_EEED1Ev: ## @_ZNSt3__16vectorIN9Reltt_INT11CallableObjENS_9allocatorIS2_EEED1Ev
	.cfi_startproc
## %bb.0:
	push	rbp
	.cfi_def_cfa_offset 16
	.cfi_offset rbp, -16
	mov	rbp, rsp
	.cfi_def_cfa_register rbp
	sub	rsp, 16
	mov	qword ptr [rbp - 8], rdi
	mov	rdi, qword ptr [rbp - 8]
	call	__ZNSt3__16vectorIN9Reltt_INT11CallableObjENS_9allocatorIS2_EEED2Ev
	add	rsp, 16
	pop	rbp
	ret
	.cfi_endproc
                                        ## -- End function
	.p2align	4, 0x90         ## -- Begin function _ZNSt3__16vectorIN9Reltt_INT10QSRcModuleENS_9allocatorIS2_EEED1Ev
__ZNSt3__16vectorIN9Reltt_INT10QSRcModuleENS_9allocatorIS2_EEED1Ev: ## @_ZNSt3__16vectorIN9Reltt_INT10QSRcModuleENS_9allocatorIS2_EEED1Ev
	.cfi_startproc
## %bb.0:
	push	rbp
	.cfi_def_cfa_offset 16
	.cfi_offset rbp, -16
	mov	rbp, rsp
	.cfi_def_cfa_register rbp
	sub	rsp, 16
	mov	qword ptr [rbp - 8], rdi
	mov	rdi, qword ptr [rbp - 8]
	call	__ZNSt3__16vectorIN9Reltt_INT10QSRcModuleENS_9allocatorIS2_EEED2Ev
	add	rsp, 16
	pop	rbp
	ret
	.cfi_endproc
                                        ## -- End function
	.p2align	4, 0x90         ## -- Begin function _ZNSt3__16vectorIN9Reltt_INT16CallableOperatorENS_9allocatorIS2_EEED1Ev
__ZNSt3__16vectorIN9Reltt_INT16CallableOperatorENS_9allocatorIS2_EEED1Ev: ## @_ZNSt3__16vectorIN9Reltt_INT16CallableOperatorENS_9allocatorIS2_EEED1Ev
	.cfi_startproc
## %bb.0:
	push	rbp
	.cfi_def_cfa_offset 16
	.cfi_offset rbp, -16
	mov	rbp, rsp
	.cfi_def_cfa_register rbp
	sub	rsp, 16
	mov	qword ptr [rbp - 8], rdi
	mov	rdi, qword ptr [rbp - 8]
	call	__ZNSt3__16vectorIN9Reltt_INT16CallableOperatorENS_9allocatorIS2_EEED2Ev
	add	rsp, 16
	pop	rbp
	ret
	.cfi_endproc
                                        ## -- End function
	.p2align	4, 0x90         ## -- Begin function _ZNSt3__16vectorI11UD_FunctionNS_9allocatorIS1_EEED1Ev
__ZNSt3__16vectorI11UD_FunctionNS_9allocatorIS1_EEED1Ev: ## @_ZNSt3__16vectorI11UD_FunctionNS_9allocatorIS1_EEED1Ev
	.cfi_startproc
## %bb.0:
	push	rbp
	.cfi_def_cfa_offset 16
	.cfi_offset rbp, -16
	mov	rbp, rsp
	.cfi_def_cfa_register rbp
	sub	rsp, 16
	mov	qword ptr [rbp - 8], rdi
	mov	rdi, qword ptr [rbp - 8]
	call	__ZNSt3__16vectorI11UD_FunctionNS_9allocatorIS1_EEED2Ev
	add	rsp, 16
	pop	rbp
	ret
	.cfi_endproc
                                        ## -- End function
	.p2align	4, 0x90         ## -- Begin function _ZNSt3__16vectorI3appNS_9allocatorIS1_EEED1Ev
__ZNSt3__16vectorI3appNS_9allocatorIS1_EEED1Ev: ## @_ZNSt3__16vectorI3appNS_9allocatorIS1_EEED1Ev
	.cfi_startproc
## %bb.0:
	push	rbp
	.cfi_def_cfa_offset 16
	.cfi_offset rbp, -16
	mov	rbp, rsp
	.cfi_def_cfa_register rbp
	sub	rsp, 16
	mov	qword ptr [rbp - 8], rdi
	mov	rdi, qword ptr [rbp - 8]
	call	__ZNSt3__16vectorI3appNS_9allocatorIS1_EEED2Ev
	add	rsp, 16
	pop	rbp
	ret
	.cfi_endproc
                                        ## -- End function
	.p2align	4, 0x90         ## -- Begin function _ZNSt3__16vectorI11instructionNS_9allocatorIS1_EEED1Ev
__ZNSt3__16vectorI11instructionNS_9allocatorIS1_EEED1Ev: ## @_ZNSt3__16vectorI11instructionNS_9allocatorIS1_EEED1Ev
	.cfi_startproc
## %bb.0:
	push	rbp
	.cfi_def_cfa_offset 16
	.cfi_offset rbp, -16
	mov	rbp, rsp
	.cfi_def_cfa_register rbp
	sub	rsp, 16
	mov	qword ptr [rbp - 8], rdi
	mov	rdi, qword ptr [rbp - 8]
	call	__ZNSt3__16vectorI11instructionNS_9allocatorIS1_EEED2Ev
	add	rsp, 16
	pop	rbp
	ret
	.cfi_endproc
                                        ## -- End function
	.p2align	4, 0x90         ## -- Begin function _ZNSt3__16vectorI11instructionNS_9allocatorIS1_EEEC2Ev
__ZNSt3__16vectorI11instructionNS_9allocatorIS1_EEEC2Ev: ## @_ZNSt3__16vectorI11instructionNS_9allocatorIS1_EEEC2Ev
	.cfi_startproc
## %bb.0:
	push	rbp
	.cfi_def_cfa_offset 16
	.cfi_offset rbp, -16
	mov	rbp, rsp
	.cfi_def_cfa_register rbp
	sub	rsp, 16
	mov	qword ptr [rbp - 8], rdi
	mov	rax, qword ptr [rbp - 8]
	mov	rdi, rax
	call	__ZNSt3__113__vector_baseI11instructionNS_9allocatorIS1_EEEC2Ev
	add	rsp, 16
	pop	rbp
	ret
	.cfi_endproc
                                        ## -- End function
	.p2align	4, 0x90         ## -- Begin function _ZNSt3__113__vector_baseI11instructionNS_9allocatorIS1_EEEC2Ev
__ZNSt3__113__vector_baseI11instructionNS_9allocatorIS1_EEEC2Ev: ## @_ZNSt3__113__vector_baseI11instructionNS_9allocatorIS1_EEEC2Ev
Lfunc_begin8:
	.cfi_startproc
	.cfi_personality 155, ___gxx_personality_v0
	.cfi_lsda 16, Lexception8
## %bb.0:
	push	rbp
	.cfi_def_cfa_offset 16
	.cfi_offset rbp, -16
	mov	rbp, rsp
	.cfi_def_cfa_register rbp
	sub	rsp, 32
	mov	qword ptr [rbp - 8], rdi
	mov	rax, qword ptr [rbp - 8]
Ltmp170:
	mov	rdi, rax
	mov	qword ptr [rbp - 24], rax ## 8-byte Spill
	call	__ZNSt3__120__vector_base_commonILb1EEC2Ev
Ltmp171:
	jmp	LBB95_1
LBB95_1:
	mov	rax, qword ptr [rbp - 24] ## 8-byte Reload
	mov	qword ptr [rax], 0
	mov	qword ptr [rax + 8], 0
	add	rax, 16
	mov	qword ptr [rbp - 16], 0
Ltmp172:
	lea	rsi, [rbp - 16]
	mov	rdi, rax
	call	__ZNSt3__117__compressed_pairIP11instructionNS_9allocatorIS1_EEEC1IDnLb1EEEOT_
Ltmp173:
	jmp	LBB95_2
LBB95_2:
	add	rsp, 32
	pop	rbp
	ret
LBB95_3:
Ltmp174:
	mov	rdi, rax
	mov	qword ptr [rbp - 32], rdx ## 8-byte Spill
	call	___clang_call_terminate
Lfunc_end8:
	.cfi_endproc
	.section	__TEXT,__gcc_except_tab
	.p2align	2
GCC_except_table95:
Lexception8:
	.byte	255                     ## @LPStart Encoding = omit
	.byte	155                     ## @TType Encoding = indirect pcrel sdata4
	.uleb128 Lttbase3-Lttbaseref3
Lttbaseref3:
	.byte	1                       ## Call site Encoding = uleb128
	.uleb128 Lcst_end8-Lcst_begin8
Lcst_begin8:
	.uleb128 Ltmp170-Lfunc_begin8   ## >> Call Site 1 <<
	.uleb128 Ltmp173-Ltmp170        ##   Call between Ltmp170 and Ltmp173
	.uleb128 Ltmp174-Lfunc_begin8   ##     jumps to Ltmp174
	.byte	1                       ##   On action: 1
Lcst_end8:
	.byte	1                       ## >> Action Record 1 <<
                                        ##   Catch TypeInfo 1
	.byte	0                       ##   No further actions
	.p2align	2
                                        ## >> Catch TypeInfos <<
	.long	0                       ## TypeInfo 1
Lttbase3:
	.p2align	2
                                        ## -- End function
	.section	__TEXT,__text,regular,pure_instructions
	.p2align	4, 0x90         ## -- Begin function _ZNSt3__120__vector_base_commonILb1EEC2Ev
__ZNSt3__120__vector_base_commonILb1EEC2Ev: ## @_ZNSt3__120__vector_base_commonILb1EEC2Ev
	.cfi_startproc
## %bb.0:
	push	rbp
	.cfi_def_cfa_offset 16
	.cfi_offset rbp, -16
	mov	rbp, rsp
	.cfi_def_cfa_register rbp
	mov	qword ptr [rbp - 8], rdi
	pop	rbp
	ret
	.cfi_endproc
                                        ## -- End function
	.p2align	4, 0x90         ## -- Begin function _ZNSt3__117__compressed_pairIP11instructionNS_9allocatorIS1_EEEC1IDnLb1EEEOT_
__ZNSt3__117__compressed_pairIP11instructionNS_9allocatorIS1_EEEC1IDnLb1EEEOT_: ## @_ZNSt3__117__compressed_pairIP11instructionNS_9allocatorIS1_EEEC1IDnLb1EEEOT_
	.cfi_startproc
## %bb.0:
	push	rbp
	.cfi_def_cfa_offset 16
	.cfi_offset rbp, -16
	mov	rbp, rsp
	.cfi_def_cfa_register rbp
	sub	rsp, 16
	mov	qword ptr [rbp - 8], rdi
	mov	qword ptr [rbp - 16], rsi
	mov	rdi, qword ptr [rbp - 8]
	mov	rsi, qword ptr [rbp - 16]
	call	__ZNSt3__117__compressed_pairIP11instructionNS_9allocatorIS1_EEEC2IDnLb1EEEOT_
	add	rsp, 16
	pop	rbp
	ret
	.cfi_endproc
                                        ## -- End function
	.p2align	4, 0x90         ## -- Begin function _ZNSt3__117__compressed_pairIP11instructionNS_9allocatorIS1_EEEC2IDnLb1EEEOT_
__ZNSt3__117__compressed_pairIP11instructionNS_9allocatorIS1_EEEC2IDnLb1EEEOT_: ## @_ZNSt3__117__compressed_pairIP11instructionNS_9allocatorIS1_EEEC2IDnLb1EEEOT_
	.cfi_startproc
## %bb.0:
	push	rbp
	.cfi_def_cfa_offset 16
	.cfi_offset rbp, -16
	mov	rbp, rsp
	.cfi_def_cfa_register rbp
	sub	rsp, 32
	mov	qword ptr [rbp - 8], rdi
	mov	qword ptr [rbp - 16], rsi
	mov	rax, qword ptr [rbp - 8]
	mov	rcx, rax
	mov	rdi, qword ptr [rbp - 16]
	mov	qword ptr [rbp - 24], rax ## 8-byte Spill
	mov	qword ptr [rbp - 32], rcx ## 8-byte Spill
	call	__ZNSt3__1L7forwardIDnEEOT_RNS_16remove_referenceIS1_E4typeE
	mov	rdi, qword ptr [rbp - 32] ## 8-byte Reload
	mov	rsi, rax
	call	__ZNSt3__122__compressed_pair_elemIP11instructionLi0ELb0EEC2IDnvEEOT_
	mov	rax, qword ptr [rbp - 24] ## 8-byte Reload
	mov	rdi, rax
	call	__ZNSt3__122__compressed_pair_elemINS_9allocatorI11instructionEELi1ELb1EEC2Ev
	add	rsp, 32
	pop	rbp
	ret
	.cfi_endproc
                                        ## -- End function
	.p2align	4, 0x90         ## -- Begin function _ZNSt3__1L7forwardIDnEEOT_RNS_16remove_referenceIS1_E4typeE
__ZNSt3__1L7forwardIDnEEOT_RNS_16remove_referenceIS1_E4typeE: ## @_ZNSt3__1L7forwardIDnEEOT_RNS_16remove_referenceIS1_E4typeE
	.cfi_startproc
## %bb.0:
	push	rbp
	.cfi_def_cfa_offset 16
	.cfi_offset rbp, -16
	mov	rbp, rsp
	.cfi_def_cfa_register rbp
	mov	qword ptr [rbp - 8], rdi
	mov	rax, qword ptr [rbp - 8]
	pop	rbp
	ret
	.cfi_endproc
                                        ## -- End function
	.p2align	4, 0x90         ## -- Begin function _ZNSt3__122__compressed_pair_elemIP11instructionLi0ELb0EEC2IDnvEEOT_
__ZNSt3__122__compressed_pair_elemIP11instructionLi0ELb0EEC2IDnvEEOT_: ## @_ZNSt3__122__compressed_pair_elemIP11instructionLi0ELb0EEC2IDnvEEOT_
	.cfi_startproc
## %bb.0:
	push	rbp
	.cfi_def_cfa_offset 16
	.cfi_offset rbp, -16
	mov	rbp, rsp
	.cfi_def_cfa_register rbp
	sub	rsp, 32
	mov	qword ptr [rbp - 8], rdi
	mov	qword ptr [rbp - 16], rsi
	mov	rax, qword ptr [rbp - 8]
	mov	rdi, qword ptr [rbp - 16]
	mov	qword ptr [rbp - 24], rax ## 8-byte Spill
	call	__ZNSt3__1L7forwardIDnEEOT_RNS_16remove_referenceIS1_E4typeE
	mov	rcx, qword ptr [rbp - 24] ## 8-byte Reload
	mov	qword ptr [rcx], 0
	add	rsp, 32
	pop	rbp
	ret
	.cfi_endproc
                                        ## -- End function
	.p2align	4, 0x90         ## -- Begin function _ZNSt3__122__compressed_pair_elemINS_9allocatorI11instructionEELi1ELb1EEC2Ev
__ZNSt3__122__compressed_pair_elemINS_9allocatorI11instructionEELi1ELb1EEC2Ev: ## @_ZNSt3__122__compressed_pair_elemINS_9allocatorI11instructionEELi1ELb1EEC2Ev
	.cfi_startproc
## %bb.0:
	push	rbp
	.cfi_def_cfa_offset 16
	.cfi_offset rbp, -16
	mov	rbp, rsp
	.cfi_def_cfa_register rbp
	sub	rsp, 16
	mov	qword ptr [rbp - 8], rdi
	mov	rax, qword ptr [rbp - 8]
	mov	rdi, rax
	call	__ZNSt3__19allocatorI11instructionEC2Ev
	add	rsp, 16
	pop	rbp
	ret
	.cfi_endproc
                                        ## -- End function
	.p2align	4, 0x90         ## -- Begin function _ZNSt3__19allocatorI11instructionEC2Ev
__ZNSt3__19allocatorI11instructionEC2Ev: ## @_ZNSt3__19allocatorI11instructionEC2Ev
	.cfi_startproc
## %bb.0:
	push	rbp
	.cfi_def_cfa_offset 16
	.cfi_offset rbp, -16
	mov	rbp, rsp
	.cfi_def_cfa_register rbp
	mov	qword ptr [rbp - 8], rdi
	pop	rbp
	ret
	.cfi_endproc
                                        ## -- End function
	.p2align	4, 0x90         ## -- Begin function _ZNSt3__16vectorI3appNS_9allocatorIS1_EEEC2Ev
__ZNSt3__16vectorI3appNS_9allocatorIS1_EEEC2Ev: ## @_ZNSt3__16vectorI3appNS_9allocatorIS1_EEEC2Ev
	.cfi_startproc
## %bb.0:
	push	rbp
	.cfi_def_cfa_offset 16
	.cfi_offset rbp, -16
	mov	rbp, rsp
	.cfi_def_cfa_register rbp
	sub	rsp, 16
	mov	qword ptr [rbp - 8], rdi
	mov	rax, qword ptr [rbp - 8]
	mov	rdi, rax
	call	__ZNSt3__113__vector_baseI3appNS_9allocatorIS1_EEEC2Ev
	add	rsp, 16
	pop	rbp
	ret
	.cfi_endproc
                                        ## -- End function
	.p2align	4, 0x90         ## -- Begin function _ZNSt3__113__vector_baseI3appNS_9allocatorIS1_EEEC2Ev
__ZNSt3__113__vector_baseI3appNS_9allocatorIS1_EEEC2Ev: ## @_ZNSt3__113__vector_baseI3appNS_9allocatorIS1_EEEC2Ev
Lfunc_begin9:
	.cfi_startproc
	.cfi_personality 155, ___gxx_personality_v0
	.cfi_lsda 16, Lexception9
## %bb.0:
	push	rbp
	.cfi_def_cfa_offset 16
	.cfi_offset rbp, -16
	mov	rbp, rsp
	.cfi_def_cfa_register rbp
	sub	rsp, 32
	mov	qword ptr [rbp - 8], rdi
	mov	rax, qword ptr [rbp - 8]
Ltmp175:
	mov	rdi, rax
	mov	qword ptr [rbp - 24], rax ## 8-byte Spill
	call	__ZNSt3__120__vector_base_commonILb1EEC2Ev
Ltmp176:
	jmp	LBB104_1
LBB104_1:
	mov	rax, qword ptr [rbp - 24] ## 8-byte Reload
	mov	qword ptr [rax], 0
	mov	qword ptr [rax + 8], 0
	add	rax, 16
	mov	qword ptr [rbp - 16], 0
Ltmp177:
	lea	rsi, [rbp - 16]
	mov	rdi, rax
	call	__ZNSt3__117__compressed_pairIP3appNS_9allocatorIS1_EEEC1IDnLb1EEEOT_
Ltmp178:
	jmp	LBB104_2
LBB104_2:
	add	rsp, 32
	pop	rbp
	ret
LBB104_3:
Ltmp179:
	mov	rdi, rax
	mov	qword ptr [rbp - 32], rdx ## 8-byte Spill
	call	___clang_call_terminate
Lfunc_end9:
	.cfi_endproc
	.section	__TEXT,__gcc_except_tab
	.p2align	2
GCC_except_table104:
Lexception9:
	.byte	255                     ## @LPStart Encoding = omit
	.byte	155                     ## @TType Encoding = indirect pcrel sdata4
	.uleb128 Lttbase4-Lttbaseref4
Lttbaseref4:
	.byte	1                       ## Call site Encoding = uleb128
	.uleb128 Lcst_end9-Lcst_begin9
Lcst_begin9:
	.uleb128 Ltmp175-Lfunc_begin9   ## >> Call Site 1 <<
	.uleb128 Ltmp178-Ltmp175        ##   Call between Ltmp175 and Ltmp178
	.uleb128 Ltmp179-Lfunc_begin9   ##     jumps to Ltmp179
	.byte	1                       ##   On action: 1
Lcst_end9:
	.byte	1                       ## >> Action Record 1 <<
                                        ##   Catch TypeInfo 1
	.byte	0                       ##   No further actions
	.p2align	2
                                        ## >> Catch TypeInfos <<
	.long	0                       ## TypeInfo 1
Lttbase4:
	.p2align	2
                                        ## -- End function
	.section	__TEXT,__text,regular,pure_instructions
	.p2align	4, 0x90         ## -- Begin function _ZNSt3__117__compressed_pairIP3appNS_9allocatorIS1_EEEC1IDnLb1EEEOT_
__ZNSt3__117__compressed_pairIP3appNS_9allocatorIS1_EEEC1IDnLb1EEEOT_: ## @_ZNSt3__117__compressed_pairIP3appNS_9allocatorIS1_EEEC1IDnLb1EEEOT_
	.cfi_startproc
## %bb.0:
	push	rbp
	.cfi_def_cfa_offset 16
	.cfi_offset rbp, -16
	mov	rbp, rsp
	.cfi_def_cfa_register rbp
	sub	rsp, 16
	mov	qword ptr [rbp - 8], rdi
	mov	qword ptr [rbp - 16], rsi
	mov	rdi, qword ptr [rbp - 8]
	mov	rsi, qword ptr [rbp - 16]
	call	__ZNSt3__117__compressed_pairIP3appNS_9allocatorIS1_EEEC2IDnLb1EEEOT_
	add	rsp, 16
	pop	rbp
	ret
	.cfi_endproc
                                        ## -- End function
	.p2align	4, 0x90         ## -- Begin function _ZNSt3__117__compressed_pairIP3appNS_9allocatorIS1_EEEC2IDnLb1EEEOT_
__ZNSt3__117__compressed_pairIP3appNS_9allocatorIS1_EEEC2IDnLb1EEEOT_: ## @_ZNSt3__117__compressed_pairIP3appNS_9allocatorIS1_EEEC2IDnLb1EEEOT_
	.cfi_startproc
## %bb.0:
	push	rbp
	.cfi_def_cfa_offset 16
	.cfi_offset rbp, -16
	mov	rbp, rsp
	.cfi_def_cfa_register rbp
	sub	rsp, 32
	mov	qword ptr [rbp - 8], rdi
	mov	qword ptr [rbp - 16], rsi
	mov	rax, qword ptr [rbp - 8]
	mov	rcx, rax
	mov	rdi, qword ptr [rbp - 16]
	mov	qword ptr [rbp - 24], rax ## 8-byte Spill
	mov	qword ptr [rbp - 32], rcx ## 8-byte Spill
	call	__ZNSt3__1L7forwardIDnEEOT_RNS_16remove_referenceIS1_E4typeE
	mov	rdi, qword ptr [rbp - 32] ## 8-byte Reload
	mov	rsi, rax
	call	__ZNSt3__122__compressed_pair_elemIP3appLi0ELb0EEC2IDnvEEOT_
	mov	rax, qword ptr [rbp - 24] ## 8-byte Reload
	mov	rdi, rax
	call	__ZNSt3__122__compressed_pair_elemINS_9allocatorI3appEELi1ELb1EEC2Ev
	add	rsp, 32
	pop	rbp
	ret
	.cfi_endproc
                                        ## -- End function
	.p2align	4, 0x90         ## -- Begin function _ZNSt3__122__compressed_pair_elemIP3appLi0ELb0EEC2IDnvEEOT_
__ZNSt3__122__compressed_pair_elemIP3appLi0ELb0EEC2IDnvEEOT_: ## @_ZNSt3__122__compressed_pair_elemIP3appLi0ELb0EEC2IDnvEEOT_
	.cfi_startproc
## %bb.0:
	push	rbp
	.cfi_def_cfa_offset 16
	.cfi_offset rbp, -16
	mov	rbp, rsp
	.cfi_def_cfa_register rbp
	sub	rsp, 32
	mov	qword ptr [rbp - 8], rdi
	mov	qword ptr [rbp - 16], rsi
	mov	rax, qword ptr [rbp - 8]
	mov	rdi, qword ptr [rbp - 16]
	mov	qword ptr [rbp - 24], rax ## 8-byte Spill
	call	__ZNSt3__1L7forwardIDnEEOT_RNS_16remove_referenceIS1_E4typeE
	mov	rcx, qword ptr [rbp - 24] ## 8-byte Reload
	mov	qword ptr [rcx], 0
	add	rsp, 32
	pop	rbp
	ret
	.cfi_endproc
                                        ## -- End function
	.p2align	4, 0x90         ## -- Begin function _ZNSt3__122__compressed_pair_elemINS_9allocatorI3appEELi1ELb1EEC2Ev
__ZNSt3__122__compressed_pair_elemINS_9allocatorI3appEELi1ELb1EEC2Ev: ## @_ZNSt3__122__compressed_pair_elemINS_9allocatorI3appEELi1ELb1EEC2Ev
	.cfi_startproc
## %bb.0:
	push	rbp
	.cfi_def_cfa_offset 16
	.cfi_offset rbp, -16
	mov	rbp, rsp
	.cfi_def_cfa_register rbp
	sub	rsp, 16
	mov	qword ptr [rbp - 8], rdi
	mov	rax, qword ptr [rbp - 8]
	mov	rdi, rax
	call	__ZNSt3__19allocatorI3appEC2Ev
	add	rsp, 16
	pop	rbp
	ret
	.cfi_endproc
                                        ## -- End function
	.p2align	4, 0x90         ## -- Begin function _ZNSt3__19allocatorI3appEC2Ev
__ZNSt3__19allocatorI3appEC2Ev:         ## @_ZNSt3__19allocatorI3appEC2Ev
	.cfi_startproc
## %bb.0:
	push	rbp
	.cfi_def_cfa_offset 16
	.cfi_offset rbp, -16
	mov	rbp, rsp
	.cfi_def_cfa_register rbp
	mov	qword ptr [rbp - 8], rdi
	pop	rbp
	ret
	.cfi_endproc
                                        ## -- End function
	.p2align	4, 0x90         ## -- Begin function _ZNSt3__16vectorI11UD_FunctionNS_9allocatorIS1_EEEC2Ev
__ZNSt3__16vectorI11UD_FunctionNS_9allocatorIS1_EEEC2Ev: ## @_ZNSt3__16vectorI11UD_FunctionNS_9allocatorIS1_EEEC2Ev
	.cfi_startproc
## %bb.0:
	push	rbp
	.cfi_def_cfa_offset 16
	.cfi_offset rbp, -16
	mov	rbp, rsp
	.cfi_def_cfa_register rbp
	sub	rsp, 16
	mov	qword ptr [rbp - 8], rdi
	mov	rax, qword ptr [rbp - 8]
	mov	rdi, rax
	call	__ZNSt3__113__vector_baseI11UD_FunctionNS_9allocatorIS1_EEEC2Ev
	add	rsp, 16
	pop	rbp
	ret
	.cfi_endproc
                                        ## -- End function
	.p2align	4, 0x90         ## -- Begin function _ZNSt3__113__vector_baseI11UD_FunctionNS_9allocatorIS1_EEEC2Ev
__ZNSt3__113__vector_baseI11UD_FunctionNS_9allocatorIS1_EEEC2Ev: ## @_ZNSt3__113__vector_baseI11UD_FunctionNS_9allocatorIS1_EEEC2Ev
Lfunc_begin10:
	.cfi_startproc
	.cfi_personality 155, ___gxx_personality_v0
	.cfi_lsda 16, Lexception10
## %bb.0:
	push	rbp
	.cfi_def_cfa_offset 16
	.cfi_offset rbp, -16
	mov	rbp, rsp
	.cfi_def_cfa_register rbp
	sub	rsp, 32
	mov	qword ptr [rbp - 8], rdi
	mov	rax, qword ptr [rbp - 8]
Ltmp180:
	mov	rdi, rax
	mov	qword ptr [rbp - 24], rax ## 8-byte Spill
	call	__ZNSt3__120__vector_base_commonILb1EEC2Ev
Ltmp181:
	jmp	LBB111_1
LBB111_1:
	mov	rax, qword ptr [rbp - 24] ## 8-byte Reload
	mov	qword ptr [rax], 0
	mov	qword ptr [rax + 8], 0
	add	rax, 16
	mov	qword ptr [rbp - 16], 0
Ltmp182:
	lea	rsi, [rbp - 16]
	mov	rdi, rax
	call	__ZNSt3__117__compressed_pairIP11UD_FunctionNS_9allocatorIS1_EEEC1IDnLb1EEEOT_
Ltmp183:
	jmp	LBB111_2
LBB111_2:
	add	rsp, 32
	pop	rbp
	ret
LBB111_3:
Ltmp184:
	mov	rdi, rax
	mov	qword ptr [rbp - 32], rdx ## 8-byte Spill
	call	___clang_call_terminate
Lfunc_end10:
	.cfi_endproc
	.section	__TEXT,__gcc_except_tab
	.p2align	2
GCC_except_table111:
Lexception10:
	.byte	255                     ## @LPStart Encoding = omit
	.byte	155                     ## @TType Encoding = indirect pcrel sdata4
	.uleb128 Lttbase5-Lttbaseref5
Lttbaseref5:
	.byte	1                       ## Call site Encoding = uleb128
	.uleb128 Lcst_end10-Lcst_begin10
Lcst_begin10:
	.uleb128 Ltmp180-Lfunc_begin10  ## >> Call Site 1 <<
	.uleb128 Ltmp183-Ltmp180        ##   Call between Ltmp180 and Ltmp183
	.uleb128 Ltmp184-Lfunc_begin10  ##     jumps to Ltmp184
	.byte	1                       ##   On action: 1
Lcst_end10:
	.byte	1                       ## >> Action Record 1 <<
                                        ##   Catch TypeInfo 1
	.byte	0                       ##   No further actions
	.p2align	2
                                        ## >> Catch TypeInfos <<
	.long	0                       ## TypeInfo 1
Lttbase5:
	.p2align	2
                                        ## -- End function
	.section	__TEXT,__text,regular,pure_instructions
	.p2align	4, 0x90         ## -- Begin function _ZNSt3__117__compressed_pairIP11UD_FunctionNS_9allocatorIS1_EEEC1IDnLb1EEEOT_
__ZNSt3__117__compressed_pairIP11UD_FunctionNS_9allocatorIS1_EEEC1IDnLb1EEEOT_: ## @_ZNSt3__117__compressed_pairIP11UD_FunctionNS_9allocatorIS1_EEEC1IDnLb1EEEOT_
	.cfi_startproc
## %bb.0:
	push	rbp
	.cfi_def_cfa_offset 16
	.cfi_offset rbp, -16
	mov	rbp, rsp
	.cfi_def_cfa_register rbp
	sub	rsp, 16
	mov	qword ptr [rbp - 8], rdi
	mov	qword ptr [rbp - 16], rsi
	mov	rdi, qword ptr [rbp - 8]
	mov	rsi, qword ptr [rbp - 16]
	call	__ZNSt3__117__compressed_pairIP11UD_FunctionNS_9allocatorIS1_EEEC2IDnLb1EEEOT_
	add	rsp, 16
	pop	rbp
	ret
	.cfi_endproc
                                        ## -- End function
	.p2align	4, 0x90         ## -- Begin function _ZNSt3__117__compressed_pairIP11UD_FunctionNS_9allocatorIS1_EEEC2IDnLb1EEEOT_
__ZNSt3__117__compressed_pairIP11UD_FunctionNS_9allocatorIS1_EEEC2IDnLb1EEEOT_: ## @_ZNSt3__117__compressed_pairIP11UD_FunctionNS_9allocatorIS1_EEEC2IDnLb1EEEOT_
	.cfi_startproc
## %bb.0:
	push	rbp
	.cfi_def_cfa_offset 16
	.cfi_offset rbp, -16
	mov	rbp, rsp
	.cfi_def_cfa_register rbp
	sub	rsp, 32
	mov	qword ptr [rbp - 8], rdi
	mov	qword ptr [rbp - 16], rsi
	mov	rax, qword ptr [rbp - 8]
	mov	rcx, rax
	mov	rdi, qword ptr [rbp - 16]
	mov	qword ptr [rbp - 24], rax ## 8-byte Spill
	mov	qword ptr [rbp - 32], rcx ## 8-byte Spill
	call	__ZNSt3__1L7forwardIDnEEOT_RNS_16remove_referenceIS1_E4typeE
	mov	rdi, qword ptr [rbp - 32] ## 8-byte Reload
	mov	rsi, rax
	call	__ZNSt3__122__compressed_pair_elemIP11UD_FunctionLi0ELb0EEC2IDnvEEOT_
	mov	rax, qword ptr [rbp - 24] ## 8-byte Reload
	mov	rdi, rax
	call	__ZNSt3__122__compressed_pair_elemINS_9allocatorI11UD_FunctionEELi1ELb1EEC2Ev
	add	rsp, 32
	pop	rbp
	ret
	.cfi_endproc
                                        ## -- End function
	.p2align	4, 0x90         ## -- Begin function _ZNSt3__122__compressed_pair_elemIP11UD_FunctionLi0ELb0EEC2IDnvEEOT_
__ZNSt3__122__compressed_pair_elemIP11UD_FunctionLi0ELb0EEC2IDnvEEOT_: ## @_ZNSt3__122__compressed_pair_elemIP11UD_FunctionLi0ELb0EEC2IDnvEEOT_
	.cfi_startproc
## %bb.0:
	push	rbp
	.cfi_def_cfa_offset 16
	.cfi_offset rbp, -16
	mov	rbp, rsp
	.cfi_def_cfa_register rbp
	sub	rsp, 32
	mov	qword ptr [rbp - 8], rdi
	mov	qword ptr [rbp - 16], rsi
	mov	rax, qword ptr [rbp - 8]
	mov	rdi, qword ptr [rbp - 16]
	mov	qword ptr [rbp - 24], rax ## 8-byte Spill
	call	__ZNSt3__1L7forwardIDnEEOT_RNS_16remove_referenceIS1_E4typeE
	mov	rcx, qword ptr [rbp - 24] ## 8-byte Reload
	mov	qword ptr [rcx], 0
	add	rsp, 32
	pop	rbp
	ret
	.cfi_endproc
                                        ## -- End function
	.p2align	4, 0x90         ## -- Begin function _ZNSt3__122__compressed_pair_elemINS_9allocatorI11UD_FunctionEELi1ELb1EEC2Ev
__ZNSt3__122__compressed_pair_elemINS_9allocatorI11UD_FunctionEELi1ELb1EEC2Ev: ## @_ZNSt3__122__compressed_pair_elemINS_9allocatorI11UD_FunctionEELi1ELb1EEC2Ev
	.cfi_startproc
## %bb.0:
	push	rbp
	.cfi_def_cfa_offset 16
	.cfi_offset rbp, -16
	mov	rbp, rsp
	.cfi_def_cfa_register rbp
	sub	rsp, 16
	mov	qword ptr [rbp - 8], rdi
	mov	rax, qword ptr [rbp - 8]
	mov	rdi, rax
	call	__ZNSt3__19allocatorI11UD_FunctionEC2Ev
	add	rsp, 16
	pop	rbp
	ret
	.cfi_endproc
                                        ## -- End function
	.p2align	4, 0x90         ## -- Begin function _ZNSt3__19allocatorI11UD_FunctionEC2Ev
__ZNSt3__19allocatorI11UD_FunctionEC2Ev: ## @_ZNSt3__19allocatorI11UD_FunctionEC2Ev
	.cfi_startproc
## %bb.0:
	push	rbp
	.cfi_def_cfa_offset 16
	.cfi_offset rbp, -16
	mov	rbp, rsp
	.cfi_def_cfa_register rbp
	mov	qword ptr [rbp - 8], rdi
	pop	rbp
	ret
	.cfi_endproc
                                        ## -- End function
	.p2align	4, 0x90         ## -- Begin function _ZNSt3__16vectorIN9Reltt_INT16CallableOperatorENS_9allocatorIS2_EEEC2Ev
__ZNSt3__16vectorIN9Reltt_INT16CallableOperatorENS_9allocatorIS2_EEEC2Ev: ## @_ZNSt3__16vectorIN9Reltt_INT16CallableOperatorENS_9allocatorIS2_EEEC2Ev
	.cfi_startproc
## %bb.0:
	push	rbp
	.cfi_def_cfa_offset 16
	.cfi_offset rbp, -16
	mov	rbp, rsp
	.cfi_def_cfa_register rbp
	sub	rsp, 16
	mov	qword ptr [rbp - 8], rdi
	mov	rax, qword ptr [rbp - 8]
	mov	rdi, rax
	call	__ZNSt3__113__vector_baseIN9Reltt_INT16CallableOperatorENS_9allocatorIS2_EEEC2Ev
	add	rsp, 16
	pop	rbp
	ret
	.cfi_endproc
                                        ## -- End function
	.p2align	4, 0x90         ## -- Begin function _ZNSt3__113__vector_baseIN9Reltt_INT16CallableOperatorENS_9allocatorIS2_EEEC2Ev
__ZNSt3__113__vector_baseIN9Reltt_INT16CallableOperatorENS_9allocatorIS2_EEEC2Ev: ## @_ZNSt3__113__vector_baseIN9Reltt_INT16CallableOperatorENS_9allocatorIS2_EEEC2Ev
Lfunc_begin11:
	.cfi_startproc
	.cfi_personality 155, ___gxx_personality_v0
	.cfi_lsda 16, Lexception11
## %bb.0:
	push	rbp
	.cfi_def_cfa_offset 16
	.cfi_offset rbp, -16
	mov	rbp, rsp
	.cfi_def_cfa_register rbp
	sub	rsp, 32
	mov	qword ptr [rbp - 8], rdi
	mov	rax, qword ptr [rbp - 8]
Ltmp185:
	mov	rdi, rax
	mov	qword ptr [rbp - 24], rax ## 8-byte Spill
	call	__ZNSt3__120__vector_base_commonILb1EEC2Ev
Ltmp186:
	jmp	LBB118_1
LBB118_1:
	mov	rax, qword ptr [rbp - 24] ## 8-byte Reload
	mov	qword ptr [rax], 0
	mov	qword ptr [rax + 8], 0
	add	rax, 16
	mov	qword ptr [rbp - 16], 0
Ltmp187:
	lea	rsi, [rbp - 16]
	mov	rdi, rax
	call	__ZNSt3__117__compressed_pairIPN9Reltt_INT16CallableOperatorENS_9allocatorIS2_EEEC1IDnLb1EEEOT_
Ltmp188:
	jmp	LBB118_2
LBB118_2:
	add	rsp, 32
	pop	rbp
	ret
LBB118_3:
Ltmp189:
	mov	rdi, rax
	mov	qword ptr [rbp - 32], rdx ## 8-byte Spill
	call	___clang_call_terminate
Lfunc_end11:
	.cfi_endproc
	.section	__TEXT,__gcc_except_tab
	.p2align	2
GCC_except_table118:
Lexception11:
	.byte	255                     ## @LPStart Encoding = omit
	.byte	155                     ## @TType Encoding = indirect pcrel sdata4
	.uleb128 Lttbase6-Lttbaseref6
Lttbaseref6:
	.byte	1                       ## Call site Encoding = uleb128
	.uleb128 Lcst_end11-Lcst_begin11
Lcst_begin11:
	.uleb128 Ltmp185-Lfunc_begin11  ## >> Call Site 1 <<
	.uleb128 Ltmp188-Ltmp185        ##   Call between Ltmp185 and Ltmp188
	.uleb128 Ltmp189-Lfunc_begin11  ##     jumps to Ltmp189
	.byte	1                       ##   On action: 1
Lcst_end11:
	.byte	1                       ## >> Action Record 1 <<
                                        ##   Catch TypeInfo 1
	.byte	0                       ##   No further actions
	.p2align	2
                                        ## >> Catch TypeInfos <<
	.long	0                       ## TypeInfo 1
Lttbase6:
	.p2align	2
                                        ## -- End function
	.section	__TEXT,__text,regular,pure_instructions
	.p2align	4, 0x90         ## -- Begin function _ZNSt3__117__compressed_pairIPN9Reltt_INT16CallableOperatorENS_9allocatorIS2_EEEC1IDnLb1EEEOT_
__ZNSt3__117__compressed_pairIPN9Reltt_INT16CallableOperatorENS_9allocatorIS2_EEEC1IDnLb1EEEOT_: ## @_ZNSt3__117__compressed_pairIPN9Reltt_INT16CallableOperatorENS_9allocatorIS2_EEEC1IDnLb1EEEOT_
	.cfi_startproc
## %bb.0:
	push	rbp
	.cfi_def_cfa_offset 16
	.cfi_offset rbp, -16
	mov	rbp, rsp
	.cfi_def_cfa_register rbp
	sub	rsp, 16
	mov	qword ptr [rbp - 8], rdi
	mov	qword ptr [rbp - 16], rsi
	mov	rdi, qword ptr [rbp - 8]
	mov	rsi, qword ptr [rbp - 16]
	call	__ZNSt3__117__compressed_pairIPN9Reltt_INT16CallableOperatorENS_9allocatorIS2_EEEC2IDnLb1EEEOT_
	add	rsp, 16
	pop	rbp
	ret
	.cfi_endproc
                                        ## -- End function
	.p2align	4, 0x90         ## -- Begin function _ZNSt3__117__compressed_pairIPN9Reltt_INT16CallableOperatorENS_9allocatorIS2_EEEC2IDnLb1EEEOT_
__ZNSt3__117__compressed_pairIPN9Reltt_INT16CallableOperatorENS_9allocatorIS2_EEEC2IDnLb1EEEOT_: ## @_ZNSt3__117__compressed_pairIPN9Reltt_INT16CallableOperatorENS_9allocatorIS2_EEEC2IDnLb1EEEOT_
	.cfi_startproc
## %bb.0:
	push	rbp
	.cfi_def_cfa_offset 16
	.cfi_offset rbp, -16
	mov	rbp, rsp
	.cfi_def_cfa_register rbp
	sub	rsp, 32
	mov	qword ptr [rbp - 8], rdi
	mov	qword ptr [rbp - 16], rsi
	mov	rax, qword ptr [rbp - 8]
	mov	rcx, rax
	mov	rdi, qword ptr [rbp - 16]
	mov	qword ptr [rbp - 24], rax ## 8-byte Spill
	mov	qword ptr [rbp - 32], rcx ## 8-byte Spill
	call	__ZNSt3__1L7forwardIDnEEOT_RNS_16remove_referenceIS1_E4typeE
	mov	rdi, qword ptr [rbp - 32] ## 8-byte Reload
	mov	rsi, rax
	call	__ZNSt3__122__compressed_pair_elemIPN9Reltt_INT16CallableOperatorELi0ELb0EEC2IDnvEEOT_
	mov	rax, qword ptr [rbp - 24] ## 8-byte Reload
	mov	rdi, rax
	call	__ZNSt3__122__compressed_pair_elemINS_9allocatorIN9Reltt_INT16CallableOperatorEEELi1ELb1EEC2Ev
	add	rsp, 32
	pop	rbp
	ret
	.cfi_endproc
                                        ## -- End function
	.p2align	4, 0x90         ## -- Begin function _ZNSt3__122__compressed_pair_elemIPN9Reltt_INT16CallableOperatorELi0ELb0EEC2IDnvEEOT_
__ZNSt3__122__compressed_pair_elemIPN9Reltt_INT16CallableOperatorELi0ELb0EEC2IDnvEEOT_: ## @_ZNSt3__122__compressed_pair_elemIPN9Reltt_INT16CallableOperatorELi0ELb0EEC2IDnvEEOT_
	.cfi_startproc
## %bb.0:
	push	rbp
	.cfi_def_cfa_offset 16
	.cfi_offset rbp, -16
	mov	rbp, rsp
	.cfi_def_cfa_register rbp
	sub	rsp, 32
	mov	qword ptr [rbp - 8], rdi
	mov	qword ptr [rbp - 16], rsi
	mov	rax, qword ptr [rbp - 8]
	mov	rdi, qword ptr [rbp - 16]
	mov	qword ptr [rbp - 24], rax ## 8-byte Spill
	call	__ZNSt3__1L7forwardIDnEEOT_RNS_16remove_referenceIS1_E4typeE
	mov	rcx, qword ptr [rbp - 24] ## 8-byte Reload
	mov	qword ptr [rcx], 0
	add	rsp, 32
	pop	rbp
	ret
	.cfi_endproc
                                        ## -- End function
	.p2align	4, 0x90         ## -- Begin function _ZNSt3__122__compressed_pair_elemINS_9allocatorIN9Reltt_INT16CallableOperatorEEELi1ELb1EEC2Ev
__ZNSt3__122__compressed_pair_elemINS_9allocatorIN9Reltt_INT16CallableOperatorEEELi1ELb1EEC2Ev: ## @_ZNSt3__122__compressed_pair_elemINS_9allocatorIN9Reltt_INT16CallableOperatorEEELi1ELb1EEC2Ev
	.cfi_startproc
## %bb.0:
	push	rbp
	.cfi_def_cfa_offset 16
	.cfi_offset rbp, -16
	mov	rbp, rsp
	.cfi_def_cfa_register rbp
	sub	rsp, 16
	mov	qword ptr [rbp - 8], rdi
	mov	rax, qword ptr [rbp - 8]
	mov	rdi, rax
	call	__ZNSt3__19allocatorIN9Reltt_INT16CallableOperatorEEC2Ev
	add	rsp, 16
	pop	rbp
	ret
	.cfi_endproc
                                        ## -- End function
	.p2align	4, 0x90         ## -- Begin function _ZNSt3__19allocatorIN9Reltt_INT16CallableOperatorEEC2Ev
__ZNSt3__19allocatorIN9Reltt_INT16CallableOperatorEEC2Ev: ## @_ZNSt3__19allocatorIN9Reltt_INT16CallableOperatorEEC2Ev
	.cfi_startproc
## %bb.0:
	push	rbp
	.cfi_def_cfa_offset 16
	.cfi_offset rbp, -16
	mov	rbp, rsp
	.cfi_def_cfa_register rbp
	mov	qword ptr [rbp - 8], rdi
	pop	rbp
	ret
	.cfi_endproc
                                        ## -- End function
	.p2align	4, 0x90         ## -- Begin function _ZNSt3__16vectorIN9Reltt_INT10QSRcModuleENS_9allocatorIS2_EEEC2Ev
__ZNSt3__16vectorIN9Reltt_INT10QSRcModuleENS_9allocatorIS2_EEEC2Ev: ## @_ZNSt3__16vectorIN9Reltt_INT10QSRcModuleENS_9allocatorIS2_EEEC2Ev
	.cfi_startproc
## %bb.0:
	push	rbp
	.cfi_def_cfa_offset 16
	.cfi_offset rbp, -16
	mov	rbp, rsp
	.cfi_def_cfa_register rbp
	sub	rsp, 16
	mov	qword ptr [rbp - 8], rdi
	mov	rax, qword ptr [rbp - 8]
	mov	rdi, rax
	call	__ZNSt3__113__vector_baseIN9Reltt_INT10QSRcModuleENS_9allocatorIS2_EEEC2Ev
	add	rsp, 16
	pop	rbp
	ret
	.cfi_endproc
                                        ## -- End function
	.p2align	4, 0x90         ## -- Begin function _ZNSt3__113__vector_baseIN9Reltt_INT10QSRcModuleENS_9allocatorIS2_EEEC2Ev
__ZNSt3__113__vector_baseIN9Reltt_INT10QSRcModuleENS_9allocatorIS2_EEEC2Ev: ## @_ZNSt3__113__vector_baseIN9Reltt_INT10QSRcModuleENS_9allocatorIS2_EEEC2Ev
Lfunc_begin12:
	.cfi_startproc
	.cfi_personality 155, ___gxx_personality_v0
	.cfi_lsda 16, Lexception12
## %bb.0:
	push	rbp
	.cfi_def_cfa_offset 16
	.cfi_offset rbp, -16
	mov	rbp, rsp
	.cfi_def_cfa_register rbp
	sub	rsp, 32
	mov	qword ptr [rbp - 8], rdi
	mov	rax, qword ptr [rbp - 8]
Ltmp190:
	mov	rdi, rax
	mov	qword ptr [rbp - 24], rax ## 8-byte Spill
	call	__ZNSt3__120__vector_base_commonILb1EEC2Ev
Ltmp191:
	jmp	LBB125_1
LBB125_1:
	mov	rax, qword ptr [rbp - 24] ## 8-byte Reload
	mov	qword ptr [rax], 0
	mov	qword ptr [rax + 8], 0
	add	rax, 16
	mov	qword ptr [rbp - 16], 0
Ltmp192:
	lea	rsi, [rbp - 16]
	mov	rdi, rax
	call	__ZNSt3__117__compressed_pairIPN9Reltt_INT10QSRcModuleENS_9allocatorIS2_EEEC1IDnLb1EEEOT_
Ltmp193:
	jmp	LBB125_2
LBB125_2:
	add	rsp, 32
	pop	rbp
	ret
LBB125_3:
Ltmp194:
	mov	rdi, rax
	mov	qword ptr [rbp - 32], rdx ## 8-byte Spill
	call	___clang_call_terminate
Lfunc_end12:
	.cfi_endproc
	.section	__TEXT,__gcc_except_tab
	.p2align	2
GCC_except_table125:
Lexception12:
	.byte	255                     ## @LPStart Encoding = omit
	.byte	155                     ## @TType Encoding = indirect pcrel sdata4
	.uleb128 Lttbase7-Lttbaseref7
Lttbaseref7:
	.byte	1                       ## Call site Encoding = uleb128
	.uleb128 Lcst_end12-Lcst_begin12
Lcst_begin12:
	.uleb128 Ltmp190-Lfunc_begin12  ## >> Call Site 1 <<
	.uleb128 Ltmp193-Ltmp190        ##   Call between Ltmp190 and Ltmp193
	.uleb128 Ltmp194-Lfunc_begin12  ##     jumps to Ltmp194
	.byte	1                       ##   On action: 1
Lcst_end12:
	.byte	1                       ## >> Action Record 1 <<
                                        ##   Catch TypeInfo 1
	.byte	0                       ##   No further actions
	.p2align	2
                                        ## >> Catch TypeInfos <<
	.long	0                       ## TypeInfo 1
Lttbase7:
	.p2align	2
                                        ## -- End function
	.section	__TEXT,__text,regular,pure_instructions
	.p2align	4, 0x90         ## -- Begin function _ZNSt3__117__compressed_pairIPN9Reltt_INT10QSRcModuleENS_9allocatorIS2_EEEC1IDnLb1EEEOT_
__ZNSt3__117__compressed_pairIPN9Reltt_INT10QSRcModuleENS_9allocatorIS2_EEEC1IDnLb1EEEOT_: ## @_ZNSt3__117__compressed_pairIPN9Reltt_INT10QSRcModuleENS_9allocatorIS2_EEEC1IDnLb1EEEOT_
	.cfi_startproc
## %bb.0:
	push	rbp
	.cfi_def_cfa_offset 16
	.cfi_offset rbp, -16
	mov	rbp, rsp
	.cfi_def_cfa_register rbp
	sub	rsp, 16
	mov	qword ptr [rbp - 8], rdi
	mov	qword ptr [rbp - 16], rsi
	mov	rdi, qword ptr [rbp - 8]
	mov	rsi, qword ptr [rbp - 16]
	call	__ZNSt3__117__compressed_pairIPN9Reltt_INT10QSRcModuleENS_9allocatorIS2_EEEC2IDnLb1EEEOT_
	add	rsp, 16
	pop	rbp
	ret
	.cfi_endproc
                                        ## -- End function
	.p2align	4, 0x90         ## -- Begin function _ZNSt3__117__compressed_pairIPN9Reltt_INT10QSRcModuleENS_9allocatorIS2_EEEC2IDnLb1EEEOT_
__ZNSt3__117__compressed_pairIPN9Reltt_INT10QSRcModuleENS_9allocatorIS2_EEEC2IDnLb1EEEOT_: ## @_ZNSt3__117__compressed_pairIPN9Reltt_INT10QSRcModuleENS_9allocatorIS2_EEEC2IDnLb1EEEOT_
	.cfi_startproc
## %bb.0:
	push	rbp
	.cfi_def_cfa_offset 16
	.cfi_offset rbp, -16
	mov	rbp, rsp
	.cfi_def_cfa_register rbp
	sub	rsp, 32
	mov	qword ptr [rbp - 8], rdi
	mov	qword ptr [rbp - 16], rsi
	mov	rax, qword ptr [rbp - 8]
	mov	rcx, rax
	mov	rdi, qword ptr [rbp - 16]
	mov	qword ptr [rbp - 24], rax ## 8-byte Spill
	mov	qword ptr [rbp - 32], rcx ## 8-byte Spill
	call	__ZNSt3__1L7forwardIDnEEOT_RNS_16remove_referenceIS1_E4typeE
	mov	rdi, qword ptr [rbp - 32] ## 8-byte Reload
	mov	rsi, rax
	call	__ZNSt3__122__compressed_pair_elemIPN9Reltt_INT10QSRcModuleELi0ELb0EEC2IDnvEEOT_
	mov	rax, qword ptr [rbp - 24] ## 8-byte Reload
	mov	rdi, rax
	call	__ZNSt3__122__compressed_pair_elemINS_9allocatorIN9Reltt_INT10QSRcModuleEEELi1ELb1EEC2Ev
	add	rsp, 32
	pop	rbp
	ret
	.cfi_endproc
                                        ## -- End function
	.p2align	4, 0x90         ## -- Begin function _ZNSt3__122__compressed_pair_elemIPN9Reltt_INT10QSRcModuleELi0ELb0EEC2IDnvEEOT_
__ZNSt3__122__compressed_pair_elemIPN9Reltt_INT10QSRcModuleELi0ELb0EEC2IDnvEEOT_: ## @_ZNSt3__122__compressed_pair_elemIPN9Reltt_INT10QSRcModuleELi0ELb0EEC2IDnvEEOT_
	.cfi_startproc
## %bb.0:
	push	rbp
	.cfi_def_cfa_offset 16
	.cfi_offset rbp, -16
	mov	rbp, rsp
	.cfi_def_cfa_register rbp
	sub	rsp, 32
	mov	qword ptr [rbp - 8], rdi
	mov	qword ptr [rbp - 16], rsi
	mov	rax, qword ptr [rbp - 8]
	mov	rdi, qword ptr [rbp - 16]
	mov	qword ptr [rbp - 24], rax ## 8-byte Spill
	call	__ZNSt3__1L7forwardIDnEEOT_RNS_16remove_referenceIS1_E4typeE
	mov	rcx, qword ptr [rbp - 24] ## 8-byte Reload
	mov	qword ptr [rcx], 0
	add	rsp, 32
	pop	rbp
	ret
	.cfi_endproc
                                        ## -- End function
	.p2align	4, 0x90         ## -- Begin function _ZNSt3__122__compressed_pair_elemINS_9allocatorIN9Reltt_INT10QSRcModuleEEELi1ELb1EEC2Ev
__ZNSt3__122__compressed_pair_elemINS_9allocatorIN9Reltt_INT10QSRcModuleEEELi1ELb1EEC2Ev: ## @_ZNSt3__122__compressed_pair_elemINS_9allocatorIN9Reltt_INT10QSRcModuleEEELi1ELb1EEC2Ev
	.cfi_startproc
## %bb.0:
	push	rbp
	.cfi_def_cfa_offset 16
	.cfi_offset rbp, -16
	mov	rbp, rsp
	.cfi_def_cfa_register rbp
	sub	rsp, 16
	mov	qword ptr [rbp - 8], rdi
	mov	rax, qword ptr [rbp - 8]
	mov	rdi, rax
	call	__ZNSt3__19allocatorIN9Reltt_INT10QSRcModuleEEC2Ev
	add	rsp, 16
	pop	rbp
	ret
	.cfi_endproc
                                        ## -- End function
	.p2align	4, 0x90         ## -- Begin function _ZNSt3__19allocatorIN9Reltt_INT10QSRcModuleEEC2Ev
__ZNSt3__19allocatorIN9Reltt_INT10QSRcModuleEEC2Ev: ## @_ZNSt3__19allocatorIN9Reltt_INT10QSRcModuleEEC2Ev
	.cfi_startproc
## %bb.0:
	push	rbp
	.cfi_def_cfa_offset 16
	.cfi_offset rbp, -16
	mov	rbp, rsp
	.cfi_def_cfa_register rbp
	mov	qword ptr [rbp - 8], rdi
	pop	rbp
	ret
	.cfi_endproc
                                        ## -- End function
	.p2align	4, 0x90         ## -- Begin function _ZNSt3__16vectorIN9Reltt_INT11CallableObjENS_9allocatorIS2_EEEC2Ev
__ZNSt3__16vectorIN9Reltt_INT11CallableObjENS_9allocatorIS2_EEEC2Ev: ## @_ZNSt3__16vectorIN9Reltt_INT11CallableObjENS_9allocatorIS2_EEEC2Ev
	.cfi_startproc
## %bb.0:
	push	rbp
	.cfi_def_cfa_offset 16
	.cfi_offset rbp, -16
	mov	rbp, rsp
	.cfi_def_cfa_register rbp
	sub	rsp, 16
	mov	qword ptr [rbp - 8], rdi
	mov	rax, qword ptr [rbp - 8]
	mov	rdi, rax
	call	__ZNSt3__113__vector_baseIN9Reltt_INT11CallableObjENS_9allocatorIS2_EEEC2Ev
	add	rsp, 16
	pop	rbp
	ret
	.cfi_endproc
                                        ## -- End function
	.p2align	4, 0x90         ## -- Begin function _ZNSt3__113__vector_baseIN9Reltt_INT11CallableObjENS_9allocatorIS2_EEEC2Ev
__ZNSt3__113__vector_baseIN9Reltt_INT11CallableObjENS_9allocatorIS2_EEEC2Ev: ## @_ZNSt3__113__vector_baseIN9Reltt_INT11CallableObjENS_9allocatorIS2_EEEC2Ev
Lfunc_begin13:
	.cfi_startproc
	.cfi_personality 155, ___gxx_personality_v0
	.cfi_lsda 16, Lexception13
## %bb.0:
	push	rbp
	.cfi_def_cfa_offset 16
	.cfi_offset rbp, -16
	mov	rbp, rsp
	.cfi_def_cfa_register rbp
	sub	rsp, 32
	mov	qword ptr [rbp - 8], rdi
	mov	rax, qword ptr [rbp - 8]
Ltmp195:
	mov	rdi, rax
	mov	qword ptr [rbp - 24], rax ## 8-byte Spill
	call	__ZNSt3__120__vector_base_commonILb1EEC2Ev
Ltmp196:
	jmp	LBB132_1
LBB132_1:
	mov	rax, qword ptr [rbp - 24] ## 8-byte Reload
	mov	qword ptr [rax], 0
	mov	qword ptr [rax + 8], 0
	add	rax, 16
	mov	qword ptr [rbp - 16], 0
Ltmp197:
	lea	rsi, [rbp - 16]
	mov	rdi, rax
	call	__ZNSt3__117__compressed_pairIPN9Reltt_INT11CallableObjENS_9allocatorIS2_EEEC1IDnLb1EEEOT_
Ltmp198:
	jmp	LBB132_2
LBB132_2:
	add	rsp, 32
	pop	rbp
	ret
LBB132_3:
Ltmp199:
	mov	rdi, rax
	mov	qword ptr [rbp - 32], rdx ## 8-byte Spill
	call	___clang_call_terminate
Lfunc_end13:
	.cfi_endproc
	.section	__TEXT,__gcc_except_tab
	.p2align	2
GCC_except_table132:
Lexception13:
	.byte	255                     ## @LPStart Encoding = omit
	.byte	155                     ## @TType Encoding = indirect pcrel sdata4
	.uleb128 Lttbase8-Lttbaseref8
Lttbaseref8:
	.byte	1                       ## Call site Encoding = uleb128
	.uleb128 Lcst_end13-Lcst_begin13
Lcst_begin13:
	.uleb128 Ltmp195-Lfunc_begin13  ## >> Call Site 1 <<
	.uleb128 Ltmp198-Ltmp195        ##   Call between Ltmp195 and Ltmp198
	.uleb128 Ltmp199-Lfunc_begin13  ##     jumps to Ltmp199
	.byte	1                       ##   On action: 1
Lcst_end13:
	.byte	1                       ## >> Action Record 1 <<
                                        ##   Catch TypeInfo 1
	.byte	0                       ##   No further actions
	.p2align	2
                                        ## >> Catch TypeInfos <<
	.long	0                       ## TypeInfo 1
Lttbase8:
	.p2align	2
                                        ## -- End function
	.section	__TEXT,__text,regular,pure_instructions
	.p2align	4, 0x90         ## -- Begin function _ZNSt3__117__compressed_pairIPN9Reltt_INT11CallableObjENS_9allocatorIS2_EEEC1IDnLb1EEEOT_
__ZNSt3__117__compressed_pairIPN9Reltt_INT11CallableObjENS_9allocatorIS2_EEEC1IDnLb1EEEOT_: ## @_ZNSt3__117__compressed_pairIPN9Reltt_INT11CallableObjENS_9allocatorIS2_EEEC1IDnLb1EEEOT_
	.cfi_startproc
## %bb.0:
	push	rbp
	.cfi_def_cfa_offset 16
	.cfi_offset rbp, -16
	mov	rbp, rsp
	.cfi_def_cfa_register rbp
	sub	rsp, 16
	mov	qword ptr [rbp - 8], rdi
	mov	qword ptr [rbp - 16], rsi
	mov	rdi, qword ptr [rbp - 8]
	mov	rsi, qword ptr [rbp - 16]
	call	__ZNSt3__117__compressed_pairIPN9Reltt_INT11CallableObjENS_9allocatorIS2_EEEC2IDnLb1EEEOT_
	add	rsp, 16
	pop	rbp
	ret
	.cfi_endproc
                                        ## -- End function
	.p2align	4, 0x90         ## -- Begin function _ZNSt3__117__compressed_pairIPN9Reltt_INT11CallableObjENS_9allocatorIS2_EEEC2IDnLb1EEEOT_
__ZNSt3__117__compressed_pairIPN9Reltt_INT11CallableObjENS_9allocatorIS2_EEEC2IDnLb1EEEOT_: ## @_ZNSt3__117__compressed_pairIPN9Reltt_INT11CallableObjENS_9allocatorIS2_EEEC2IDnLb1EEEOT_
	.cfi_startproc
## %bb.0:
	push	rbp
	.cfi_def_cfa_offset 16
	.cfi_offset rbp, -16
	mov	rbp, rsp
	.cfi_def_cfa_register rbp
	sub	rsp, 32
	mov	qword ptr [rbp - 8], rdi
	mov	qword ptr [rbp - 16], rsi
	mov	rax, qword ptr [rbp - 8]
	mov	rcx, rax
	mov	rdi, qword ptr [rbp - 16]
	mov	qword ptr [rbp - 24], rax ## 8-byte Spill
	mov	qword ptr [rbp - 32], rcx ## 8-byte Spill
	call	__ZNSt3__1L7forwardIDnEEOT_RNS_16remove_referenceIS1_E4typeE
	mov	rdi, qword ptr [rbp - 32] ## 8-byte Reload
	mov	rsi, rax
	call	__ZNSt3__122__compressed_pair_elemIPN9Reltt_INT11CallableObjELi0ELb0EEC2IDnvEEOT_
	mov	rax, qword ptr [rbp - 24] ## 8-byte Reload
	mov	rdi, rax
	call	__ZNSt3__122__compressed_pair_elemINS_9allocatorIN9Reltt_INT11CallableObjEEELi1ELb1EEC2Ev
	add	rsp, 32
	pop	rbp
	ret
	.cfi_endproc
                                        ## -- End function
	.p2align	4, 0x90         ## -- Begin function _ZNSt3__122__compressed_pair_elemIPN9Reltt_INT11CallableObjELi0ELb0EEC2IDnvEEOT_
__ZNSt3__122__compressed_pair_elemIPN9Reltt_INT11CallableObjELi0ELb0EEC2IDnvEEOT_: ## @_ZNSt3__122__compressed_pair_elemIPN9Reltt_INT11CallableObjELi0ELb0EEC2IDnvEEOT_
	.cfi_startproc
## %bb.0:
	push	rbp
	.cfi_def_cfa_offset 16
	.cfi_offset rbp, -16
	mov	rbp, rsp
	.cfi_def_cfa_register rbp
	sub	rsp, 32
	mov	qword ptr [rbp - 8], rdi
	mov	qword ptr [rbp - 16], rsi
	mov	rax, qword ptr [rbp - 8]
	mov	rdi, qword ptr [rbp - 16]
	mov	qword ptr [rbp - 24], rax ## 8-byte Spill
	call	__ZNSt3__1L7forwardIDnEEOT_RNS_16remove_referenceIS1_E4typeE
	mov	rcx, qword ptr [rbp - 24] ## 8-byte Reload
	mov	qword ptr [rcx], 0
	add	rsp, 32
	pop	rbp
	ret
	.cfi_endproc
                                        ## -- End function
	.p2align	4, 0x90         ## -- Begin function _ZNSt3__122__compressed_pair_elemINS_9allocatorIN9Reltt_INT11CallableObjEEELi1ELb1EEC2Ev
__ZNSt3__122__compressed_pair_elemINS_9allocatorIN9Reltt_INT11CallableObjEEELi1ELb1EEC2Ev: ## @_ZNSt3__122__compressed_pair_elemINS_9allocatorIN9Reltt_INT11CallableObjEEELi1ELb1EEC2Ev
	.cfi_startproc
## %bb.0:
	push	rbp
	.cfi_def_cfa_offset 16
	.cfi_offset rbp, -16
	mov	rbp, rsp
	.cfi_def_cfa_register rbp
	sub	rsp, 16
	mov	qword ptr [rbp - 8], rdi
	mov	rax, qword ptr [rbp - 8]
	mov	rdi, rax
	call	__ZNSt3__19allocatorIN9Reltt_INT11CallableObjEEC2Ev
	add	rsp, 16
	pop	rbp
	ret
	.cfi_endproc
                                        ## -- End function
	.p2align	4, 0x90         ## -- Begin function _ZNSt3__19allocatorIN9Reltt_INT11CallableObjEEC2Ev
__ZNSt3__19allocatorIN9Reltt_INT11CallableObjEEC2Ev: ## @_ZNSt3__19allocatorIN9Reltt_INT11CallableObjEEC2Ev
	.cfi_startproc
## %bb.0:
	push	rbp
	.cfi_def_cfa_offset 16
	.cfi_offset rbp, -16
	mov	rbp, rsp
	.cfi_def_cfa_register rbp
	mov	qword ptr [rbp - 8], rdi
	pop	rbp
	ret
	.cfi_endproc
                                        ## -- End function
	.p2align	4, 0x90         ## -- Begin function _ZNSt3__16vectorIP12func_INS_VarNS_9allocatorIS2_EEEC2Ev
__ZNSt3__16vectorIP12func_INS_VarNS_9allocatorIS2_EEEC2Ev: ## @_ZNSt3__16vectorIP12func_INS_VarNS_9allocatorIS2_EEEC2Ev
	.cfi_startproc
## %bb.0:
	push	rbp
	.cfi_def_cfa_offset 16
	.cfi_offset rbp, -16
	mov	rbp, rsp
	.cfi_def_cfa_register rbp
	sub	rsp, 16
	mov	qword ptr [rbp - 8], rdi
	mov	rax, qword ptr [rbp - 8]
	mov	rdi, rax
	call	__ZNSt3__113__vector_baseIP12func_INS_VarNS_9allocatorIS2_EEEC2Ev
	add	rsp, 16
	pop	rbp
	ret
	.cfi_endproc
                                        ## -- End function
	.p2align	4, 0x90         ## -- Begin function _ZNSt3__113__vector_baseIP12func_INS_VarNS_9allocatorIS2_EEEC2Ev
__ZNSt3__113__vector_baseIP12func_INS_VarNS_9allocatorIS2_EEEC2Ev: ## @_ZNSt3__113__vector_baseIP12func_INS_VarNS_9allocatorIS2_EEEC2Ev
Lfunc_begin14:
	.cfi_startproc
	.cfi_personality 155, ___gxx_personality_v0
	.cfi_lsda 16, Lexception14
## %bb.0:
	push	rbp
	.cfi_def_cfa_offset 16
	.cfi_offset rbp, -16
	mov	rbp, rsp
	.cfi_def_cfa_register rbp
	sub	rsp, 32
	mov	qword ptr [rbp - 8], rdi
	mov	rax, qword ptr [rbp - 8]
Ltmp200:
	mov	rdi, rax
	mov	qword ptr [rbp - 24], rax ## 8-byte Spill
	call	__ZNSt3__120__vector_base_commonILb1EEC2Ev
Ltmp201:
	jmp	LBB139_1
LBB139_1:
	mov	rax, qword ptr [rbp - 24] ## 8-byte Reload
	mov	qword ptr [rax], 0
	mov	qword ptr [rax + 8], 0
	add	rax, 16
	mov	qword ptr [rbp - 16], 0
Ltmp202:
	lea	rsi, [rbp - 16]
	mov	rdi, rax
	call	__ZNSt3__117__compressed_pairIPP12func_INS_VarNS_9allocatorIS2_EEEC1IDnLb1EEEOT_
Ltmp203:
	jmp	LBB139_2
LBB139_2:
	add	rsp, 32
	pop	rbp
	ret
LBB139_3:
Ltmp204:
	mov	rdi, rax
	mov	qword ptr [rbp - 32], rdx ## 8-byte Spill
	call	___clang_call_terminate
Lfunc_end14:
	.cfi_endproc
	.section	__TEXT,__gcc_except_tab
	.p2align	2
GCC_except_table139:
Lexception14:
	.byte	255                     ## @LPStart Encoding = omit
	.byte	155                     ## @TType Encoding = indirect pcrel sdata4
	.uleb128 Lttbase9-Lttbaseref9
Lttbaseref9:
	.byte	1                       ## Call site Encoding = uleb128
	.uleb128 Lcst_end14-Lcst_begin14
Lcst_begin14:
	.uleb128 Ltmp200-Lfunc_begin14  ## >> Call Site 1 <<
	.uleb128 Ltmp203-Ltmp200        ##   Call between Ltmp200 and Ltmp203
	.uleb128 Ltmp204-Lfunc_begin14  ##     jumps to Ltmp204
	.byte	1                       ##   On action: 1
Lcst_end14:
	.byte	1                       ## >> Action Record 1 <<
                                        ##   Catch TypeInfo 1
	.byte	0                       ##   No further actions
	.p2align	2
                                        ## >> Catch TypeInfos <<
	.long	0                       ## TypeInfo 1
Lttbase9:
	.p2align	2
                                        ## -- End function
	.section	__TEXT,__text,regular,pure_instructions
	.p2align	4, 0x90         ## -- Begin function _ZNSt3__117__compressed_pairIPP12func_INS_VarNS_9allocatorIS2_EEEC1IDnLb1EEEOT_
__ZNSt3__117__compressed_pairIPP12func_INS_VarNS_9allocatorIS2_EEEC1IDnLb1EEEOT_: ## @_ZNSt3__117__compressed_pairIPP12func_INS_VarNS_9allocatorIS2_EEEC1IDnLb1EEEOT_
	.cfi_startproc
## %bb.0:
	push	rbp
	.cfi_def_cfa_offset 16
	.cfi_offset rbp, -16
	mov	rbp, rsp
	.cfi_def_cfa_register rbp
	sub	rsp, 16
	mov	qword ptr [rbp - 8], rdi
	mov	qword ptr [rbp - 16], rsi
	mov	rdi, qword ptr [rbp - 8]
	mov	rsi, qword ptr [rbp - 16]
	call	__ZNSt3__117__compressed_pairIPP12func_INS_VarNS_9allocatorIS2_EEEC2IDnLb1EEEOT_
	add	rsp, 16
	pop	rbp
	ret
	.cfi_endproc
                                        ## -- End function
	.p2align	4, 0x90         ## -- Begin function _ZNSt3__117__compressed_pairIPP12func_INS_VarNS_9allocatorIS2_EEEC2IDnLb1EEEOT_
__ZNSt3__117__compressed_pairIPP12func_INS_VarNS_9allocatorIS2_EEEC2IDnLb1EEEOT_: ## @_ZNSt3__117__compressed_pairIPP12func_INS_VarNS_9allocatorIS2_EEEC2IDnLb1EEEOT_
	.cfi_startproc
## %bb.0:
	push	rbp
	.cfi_def_cfa_offset 16
	.cfi_offset rbp, -16
	mov	rbp, rsp
	.cfi_def_cfa_register rbp
	sub	rsp, 32
	mov	qword ptr [rbp - 8], rdi
	mov	qword ptr [rbp - 16], rsi
	mov	rax, qword ptr [rbp - 8]
	mov	rcx, rax
	mov	rdi, qword ptr [rbp - 16]
	mov	qword ptr [rbp - 24], rax ## 8-byte Spill
	mov	qword ptr [rbp - 32], rcx ## 8-byte Spill
	call	__ZNSt3__1L7forwardIDnEEOT_RNS_16remove_referenceIS1_E4typeE
	mov	rdi, qword ptr [rbp - 32] ## 8-byte Reload
	mov	rsi, rax
	call	__ZNSt3__122__compressed_pair_elemIPP12func_INS_VarLi0ELb0EEC2IDnvEEOT_
	mov	rax, qword ptr [rbp - 24] ## 8-byte Reload
	mov	rdi, rax
	call	__ZNSt3__122__compressed_pair_elemINS_9allocatorIP12func_INS_VarEELi1ELb1EEC2Ev
	add	rsp, 32
	pop	rbp
	ret
	.cfi_endproc
                                        ## -- End function
	.p2align	4, 0x90         ## -- Begin function _ZNSt3__122__compressed_pair_elemIPP12func_INS_VarLi0ELb0EEC2IDnvEEOT_
__ZNSt3__122__compressed_pair_elemIPP12func_INS_VarLi0ELb0EEC2IDnvEEOT_: ## @_ZNSt3__122__compressed_pair_elemIPP12func_INS_VarLi0ELb0EEC2IDnvEEOT_
	.cfi_startproc
## %bb.0:
	push	rbp
	.cfi_def_cfa_offset 16
	.cfi_offset rbp, -16
	mov	rbp, rsp
	.cfi_def_cfa_register rbp
	sub	rsp, 32
	mov	qword ptr [rbp - 8], rdi
	mov	qword ptr [rbp - 16], rsi
	mov	rax, qword ptr [rbp - 8]
	mov	rdi, qword ptr [rbp - 16]
	mov	qword ptr [rbp - 24], rax ## 8-byte Spill
	call	__ZNSt3__1L7forwardIDnEEOT_RNS_16remove_referenceIS1_E4typeE
	mov	rcx, qword ptr [rbp - 24] ## 8-byte Reload
	mov	qword ptr [rcx], 0
	add	rsp, 32
	pop	rbp
	ret
	.cfi_endproc
                                        ## -- End function
	.p2align	4, 0x90         ## -- Begin function _ZNSt3__122__compressed_pair_elemINS_9allocatorIP12func_INS_VarEELi1ELb1EEC2Ev
__ZNSt3__122__compressed_pair_elemINS_9allocatorIP12func_INS_VarEELi1ELb1EEC2Ev: ## @_ZNSt3__122__compressed_pair_elemINS_9allocatorIP12func_INS_VarEELi1ELb1EEC2Ev
	.cfi_startproc
## %bb.0:
	push	rbp
	.cfi_def_cfa_offset 16
	.cfi_offset rbp, -16
	mov	rbp, rsp
	.cfi_def_cfa_register rbp
	sub	rsp, 16
	mov	qword ptr [rbp - 8], rdi
	mov	rax, qword ptr [rbp - 8]
	mov	rdi, rax
	call	__ZNSt3__19allocatorIP12func_INS_VarEC2Ev
	add	rsp, 16
	pop	rbp
	ret
	.cfi_endproc
                                        ## -- End function
	.p2align	4, 0x90         ## -- Begin function _ZNSt3__19allocatorIP12func_INS_VarEC2Ev
__ZNSt3__19allocatorIP12func_INS_VarEC2Ev: ## @_ZNSt3__19allocatorIP12func_INS_VarEC2Ev
	.cfi_startproc
## %bb.0:
	push	rbp
	.cfi_def_cfa_offset 16
	.cfi_offset rbp, -16
	mov	rbp, rsp
	.cfi_def_cfa_register rbp
	mov	qword ptr [rbp - 8], rdi
	pop	rbp
	ret
	.cfi_endproc
                                        ## -- End function
	.p2align	4, 0x90         ## -- Begin function _ZNSt3__16vectorIN9Reltt_INT3FncENS_9allocatorIS2_EEEC2Ev
__ZNSt3__16vectorIN9Reltt_INT3FncENS_9allocatorIS2_EEEC2Ev: ## @_ZNSt3__16vectorIN9Reltt_INT3FncENS_9allocatorIS2_EEEC2Ev
	.cfi_startproc
## %bb.0:
	push	rbp
	.cfi_def_cfa_offset 16
	.cfi_offset rbp, -16
	mov	rbp, rsp
	.cfi_def_cfa_register rbp
	sub	rsp, 16
	mov	qword ptr [rbp - 8], rdi
	mov	rax, qword ptr [rbp - 8]
	mov	rdi, rax
	call	__ZNSt3__113__vector_baseIN9Reltt_INT3FncENS_9allocatorIS2_EEEC2Ev
	add	rsp, 16
	pop	rbp
	ret
	.cfi_endproc
                                        ## -- End function
	.p2align	4, 0x90         ## -- Begin function _ZNSt3__113__vector_baseIN9Reltt_INT3FncENS_9allocatorIS2_EEEC2Ev
__ZNSt3__113__vector_baseIN9Reltt_INT3FncENS_9allocatorIS2_EEEC2Ev: ## @_ZNSt3__113__vector_baseIN9Reltt_INT3FncENS_9allocatorIS2_EEEC2Ev
Lfunc_begin15:
	.cfi_startproc
	.cfi_personality 155, ___gxx_personality_v0
	.cfi_lsda 16, Lexception15
## %bb.0:
	push	rbp
	.cfi_def_cfa_offset 16
	.cfi_offset rbp, -16
	mov	rbp, rsp
	.cfi_def_cfa_register rbp
	sub	rsp, 32
	mov	qword ptr [rbp - 8], rdi
	mov	rax, qword ptr [rbp - 8]
Ltmp205:
	mov	rdi, rax
	mov	qword ptr [rbp - 24], rax ## 8-byte Spill
	call	__ZNSt3__120__vector_base_commonILb1EEC2Ev
Ltmp206:
	jmp	LBB146_1
LBB146_1:
	mov	rax, qword ptr [rbp - 24] ## 8-byte Reload
	mov	qword ptr [rax], 0
	mov	qword ptr [rax + 8], 0
	add	rax, 16
	mov	qword ptr [rbp - 16], 0
Ltmp207:
	lea	rsi, [rbp - 16]
	mov	rdi, rax
	call	__ZNSt3__117__compressed_pairIPN9Reltt_INT3FncENS_9allocatorIS2_EEEC1IDnLb1EEEOT_
Ltmp208:
	jmp	LBB146_2
LBB146_2:
	add	rsp, 32
	pop	rbp
	ret
LBB146_3:
Ltmp209:
	mov	rdi, rax
	mov	qword ptr [rbp - 32], rdx ## 8-byte Spill
	call	___clang_call_terminate
Lfunc_end15:
	.cfi_endproc
	.section	__TEXT,__gcc_except_tab
	.p2align	2
GCC_except_table146:
Lexception15:
	.byte	255                     ## @LPStart Encoding = omit
	.byte	155                     ## @TType Encoding = indirect pcrel sdata4
	.uleb128 Lttbase10-Lttbaseref10
Lttbaseref10:
	.byte	1                       ## Call site Encoding = uleb128
	.uleb128 Lcst_end15-Lcst_begin15
Lcst_begin15:
	.uleb128 Ltmp205-Lfunc_begin15  ## >> Call Site 1 <<
	.uleb128 Ltmp208-Ltmp205        ##   Call between Ltmp205 and Ltmp208
	.uleb128 Ltmp209-Lfunc_begin15  ##     jumps to Ltmp209
	.byte	1                       ##   On action: 1
Lcst_end15:
	.byte	1                       ## >> Action Record 1 <<
                                        ##   Catch TypeInfo 1
	.byte	0                       ##   No further actions
	.p2align	2
                                        ## >> Catch TypeInfos <<
	.long	0                       ## TypeInfo 1
Lttbase10:
	.p2align	2
                                        ## -- End function
	.section	__TEXT,__text,regular,pure_instructions
	.p2align	4, 0x90         ## -- Begin function _ZNSt3__117__compressed_pairIPN9Reltt_INT3FncENS_9allocatorIS2_EEEC1IDnLb1EEEOT_
__ZNSt3__117__compressed_pairIPN9Reltt_INT3FncENS_9allocatorIS2_EEEC1IDnLb1EEEOT_: ## @_ZNSt3__117__compressed_pairIPN9Reltt_INT3FncENS_9allocatorIS2_EEEC1IDnLb1EEEOT_
	.cfi_startproc
## %bb.0:
	push	rbp
	.cfi_def_cfa_offset 16
	.cfi_offset rbp, -16
	mov	rbp, rsp
	.cfi_def_cfa_register rbp
	sub	rsp, 16
	mov	qword ptr [rbp - 8], rdi
	mov	qword ptr [rbp - 16], rsi
	mov	rdi, qword ptr [rbp - 8]
	mov	rsi, qword ptr [rbp - 16]
	call	__ZNSt3__117__compressed_pairIPN9Reltt_INT3FncENS_9allocatorIS2_EEEC2IDnLb1EEEOT_
	add	rsp, 16
	pop	rbp
	ret
	.cfi_endproc
                                        ## -- End function
	.p2align	4, 0x90         ## -- Begin function _ZNSt3__117__compressed_pairIPN9Reltt_INT3FncENS_9allocatorIS2_EEEC2IDnLb1EEEOT_
__ZNSt3__117__compressed_pairIPN9Reltt_INT3FncENS_9allocatorIS2_EEEC2IDnLb1EEEOT_: ## @_ZNSt3__117__compressed_pairIPN9Reltt_INT3FncENS_9allocatorIS2_EEEC2IDnLb1EEEOT_
	.cfi_startproc
## %bb.0:
	push	rbp
	.cfi_def_cfa_offset 16
	.cfi_offset rbp, -16
	mov	rbp, rsp
	.cfi_def_cfa_register rbp
	sub	rsp, 32
	mov	qword ptr [rbp - 8], rdi
	mov	qword ptr [rbp - 16], rsi
	mov	rax, qword ptr [rbp - 8]
	mov	rcx, rax
	mov	rdi, qword ptr [rbp - 16]
	mov	qword ptr [rbp - 24], rax ## 8-byte Spill
	mov	qword ptr [rbp - 32], rcx ## 8-byte Spill
	call	__ZNSt3__1L7forwardIDnEEOT_RNS_16remove_referenceIS1_E4typeE
	mov	rdi, qword ptr [rbp - 32] ## 8-byte Reload
	mov	rsi, rax
	call	__ZNSt3__122__compressed_pair_elemIPN9Reltt_INT3FncELi0ELb0EEC2IDnvEEOT_
	mov	rax, qword ptr [rbp - 24] ## 8-byte Reload
	mov	rdi, rax
	call	__ZNSt3__122__compressed_pair_elemINS_9allocatorIN9Reltt_INT3FncEEELi1ELb1EEC2Ev
	add	rsp, 32
	pop	rbp
	ret
	.cfi_endproc
                                        ## -- End function
	.p2align	4, 0x90         ## -- Begin function _ZNSt3__122__compressed_pair_elemIPN9Reltt_INT3FncELi0ELb0EEC2IDnvEEOT_
__ZNSt3__122__compressed_pair_elemIPN9Reltt_INT3FncELi0ELb0EEC2IDnvEEOT_: ## @_ZNSt3__122__compressed_pair_elemIPN9Reltt_INT3FncELi0ELb0EEC2IDnvEEOT_
	.cfi_startproc
## %bb.0:
	push	rbp
	.cfi_def_cfa_offset 16
	.cfi_offset rbp, -16
	mov	rbp, rsp
	.cfi_def_cfa_register rbp
	sub	rsp, 32
	mov	qword ptr [rbp - 8], rdi
	mov	qword ptr [rbp - 16], rsi
	mov	rax, qword ptr [rbp - 8]
	mov	rdi, qword ptr [rbp - 16]
	mov	qword ptr [rbp - 24], rax ## 8-byte Spill
	call	__ZNSt3__1L7forwardIDnEEOT_RNS_16remove_referenceIS1_E4typeE
	mov	rcx, qword ptr [rbp - 24] ## 8-byte Reload
	mov	qword ptr [rcx], 0
	add	rsp, 32
	pop	rbp
	ret
	.cfi_endproc
                                        ## -- End function
	.p2align	4, 0x90         ## -- Begin function _ZNSt3__122__compressed_pair_elemINS_9allocatorIN9Reltt_INT3FncEEELi1ELb1EEC2Ev
__ZNSt3__122__compressed_pair_elemINS_9allocatorIN9Reltt_INT3FncEEELi1ELb1EEC2Ev: ## @_ZNSt3__122__compressed_pair_elemINS_9allocatorIN9Reltt_INT3FncEEELi1ELb1EEC2Ev
	.cfi_startproc
## %bb.0:
	push	rbp
	.cfi_def_cfa_offset 16
	.cfi_offset rbp, -16
	mov	rbp, rsp
	.cfi_def_cfa_register rbp
	sub	rsp, 16
	mov	qword ptr [rbp - 8], rdi
	mov	rax, qword ptr [rbp - 8]
	mov	rdi, rax
	call	__ZNSt3__19allocatorIN9Reltt_INT3FncEEC2Ev
	add	rsp, 16
	pop	rbp
	ret
	.cfi_endproc
                                        ## -- End function
	.p2align	4, 0x90         ## -- Begin function _ZNSt3__19allocatorIN9Reltt_INT3FncEEC2Ev
__ZNSt3__19allocatorIN9Reltt_INT3FncEEC2Ev: ## @_ZNSt3__19allocatorIN9Reltt_INT3FncEEC2Ev
	.cfi_startproc
## %bb.0:
	push	rbp
	.cfi_def_cfa_offset 16
	.cfi_offset rbp, -16
	mov	rbp, rsp
	.cfi_def_cfa_register rbp
	mov	qword ptr [rbp - 8], rdi
	pop	rbp
	ret
	.cfi_endproc
                                        ## -- End function
	.p2align	4, 0x90         ## -- Begin function _ZNSt3__16vectorIiNS_9allocatorIiEEEC2Ev
__ZNSt3__16vectorIiNS_9allocatorIiEEEC2Ev: ## @_ZNSt3__16vectorIiNS_9allocatorIiEEEC2Ev
	.cfi_startproc
## %bb.0:
	push	rbp
	.cfi_def_cfa_offset 16
	.cfi_offset rbp, -16
	mov	rbp, rsp
	.cfi_def_cfa_register rbp
	sub	rsp, 16
	mov	qword ptr [rbp - 8], rdi
	mov	rax, qword ptr [rbp - 8]
	mov	rdi, rax
	call	__ZNSt3__113__vector_baseIiNS_9allocatorIiEEEC2Ev
	add	rsp, 16
	pop	rbp
	ret
	.cfi_endproc
                                        ## -- End function
	.p2align	4, 0x90         ## -- Begin function _ZNSt3__113__vector_baseIiNS_9allocatorIiEEEC2Ev
__ZNSt3__113__vector_baseIiNS_9allocatorIiEEEC2Ev: ## @_ZNSt3__113__vector_baseIiNS_9allocatorIiEEEC2Ev
Lfunc_begin16:
	.cfi_startproc
	.cfi_personality 155, ___gxx_personality_v0
	.cfi_lsda 16, Lexception16
## %bb.0:
	push	rbp
	.cfi_def_cfa_offset 16
	.cfi_offset rbp, -16
	mov	rbp, rsp
	.cfi_def_cfa_register rbp
	sub	rsp, 32
	mov	qword ptr [rbp - 8], rdi
	mov	rax, qword ptr [rbp - 8]
Ltmp210:
	mov	rdi, rax
	mov	qword ptr [rbp - 24], rax ## 8-byte Spill
	call	__ZNSt3__120__vector_base_commonILb1EEC2Ev
Ltmp211:
	jmp	LBB153_1
LBB153_1:
	mov	rax, qword ptr [rbp - 24] ## 8-byte Reload
	mov	qword ptr [rax], 0
	mov	qword ptr [rax + 8], 0
	add	rax, 16
	mov	qword ptr [rbp - 16], 0
Ltmp212:
	lea	rsi, [rbp - 16]
	mov	rdi, rax
	call	__ZNSt3__117__compressed_pairIPiNS_9allocatorIiEEEC1IDnLb1EEEOT_
Ltmp213:
	jmp	LBB153_2
LBB153_2:
	add	rsp, 32
	pop	rbp
	ret
LBB153_3:
Ltmp214:
	mov	rdi, rax
	mov	qword ptr [rbp - 32], rdx ## 8-byte Spill
	call	___clang_call_terminate
Lfunc_end16:
	.cfi_endproc
	.section	__TEXT,__gcc_except_tab
	.p2align	2
GCC_except_table153:
Lexception16:
	.byte	255                     ## @LPStart Encoding = omit
	.byte	155                     ## @TType Encoding = indirect pcrel sdata4
	.uleb128 Lttbase11-Lttbaseref11
Lttbaseref11:
	.byte	1                       ## Call site Encoding = uleb128
	.uleb128 Lcst_end16-Lcst_begin16
Lcst_begin16:
	.uleb128 Ltmp210-Lfunc_begin16  ## >> Call Site 1 <<
	.uleb128 Ltmp213-Ltmp210        ##   Call between Ltmp210 and Ltmp213
	.uleb128 Ltmp214-Lfunc_begin16  ##     jumps to Ltmp214
	.byte	1                       ##   On action: 1
Lcst_end16:
	.byte	1                       ## >> Action Record 1 <<
                                        ##   Catch TypeInfo 1
	.byte	0                       ##   No further actions
	.p2align	2
                                        ## >> Catch TypeInfos <<
	.long	0                       ## TypeInfo 1
Lttbase11:
	.p2align	2
                                        ## -- End function
	.section	__TEXT,__text,regular,pure_instructions
	.p2align	4, 0x90         ## -- Begin function _ZNSt3__117__compressed_pairIPiNS_9allocatorIiEEEC1IDnLb1EEEOT_
__ZNSt3__117__compressed_pairIPiNS_9allocatorIiEEEC1IDnLb1EEEOT_: ## @_ZNSt3__117__compressed_pairIPiNS_9allocatorIiEEEC1IDnLb1EEEOT_
	.cfi_startproc
## %bb.0:
	push	rbp
	.cfi_def_cfa_offset 16
	.cfi_offset rbp, -16
	mov	rbp, rsp
	.cfi_def_cfa_register rbp
	sub	rsp, 16
	mov	qword ptr [rbp - 8], rdi
	mov	qword ptr [rbp - 16], rsi
	mov	rdi, qword ptr [rbp - 8]
	mov	rsi, qword ptr [rbp - 16]
	call	__ZNSt3__117__compressed_pairIPiNS_9allocatorIiEEEC2IDnLb1EEEOT_
	add	rsp, 16
	pop	rbp
	ret
	.cfi_endproc
                                        ## -- End function
	.p2align	4, 0x90         ## -- Begin function _ZNSt3__117__compressed_pairIPiNS_9allocatorIiEEEC2IDnLb1EEEOT_
__ZNSt3__117__compressed_pairIPiNS_9allocatorIiEEEC2IDnLb1EEEOT_: ## @_ZNSt3__117__compressed_pairIPiNS_9allocatorIiEEEC2IDnLb1EEEOT_
	.cfi_startproc
## %bb.0:
	push	rbp
	.cfi_def_cfa_offset 16
	.cfi_offset rbp, -16
	mov	rbp, rsp
	.cfi_def_cfa_register rbp
	sub	rsp, 32
	mov	qword ptr [rbp - 8], rdi
	mov	qword ptr [rbp - 16], rsi
	mov	rax, qword ptr [rbp - 8]
	mov	rcx, rax
	mov	rdi, qword ptr [rbp - 16]
	mov	qword ptr [rbp - 24], rax ## 8-byte Spill
	mov	qword ptr [rbp - 32], rcx ## 8-byte Spill
	call	__ZNSt3__1L7forwardIDnEEOT_RNS_16remove_referenceIS1_E4typeE
	mov	rdi, qword ptr [rbp - 32] ## 8-byte Reload
	mov	rsi, rax
	call	__ZNSt3__122__compressed_pair_elemIPiLi0ELb0EEC2IDnvEEOT_
	mov	rax, qword ptr [rbp - 24] ## 8-byte Reload
	mov	rdi, rax
	call	__ZNSt3__122__compressed_pair_elemINS_9allocatorIiEELi1ELb1EEC2Ev
	add	rsp, 32
	pop	rbp
	ret
	.cfi_endproc
                                        ## -- End function
	.p2align	4, 0x90         ## -- Begin function _ZNSt3__122__compressed_pair_elemIPiLi0ELb0EEC2IDnvEEOT_
__ZNSt3__122__compressed_pair_elemIPiLi0ELb0EEC2IDnvEEOT_: ## @_ZNSt3__122__compressed_pair_elemIPiLi0ELb0EEC2IDnvEEOT_
	.cfi_startproc
## %bb.0:
	push	rbp
	.cfi_def_cfa_offset 16
	.cfi_offset rbp, -16
	mov	rbp, rsp
	.cfi_def_cfa_register rbp
	sub	rsp, 32
	mov	qword ptr [rbp - 8], rdi
	mov	qword ptr [rbp - 16], rsi
	mov	rax, qword ptr [rbp - 8]
	mov	rdi, qword ptr [rbp - 16]
	mov	qword ptr [rbp - 24], rax ## 8-byte Spill
	call	__ZNSt3__1L7forwardIDnEEOT_RNS_16remove_referenceIS1_E4typeE
	mov	rcx, qword ptr [rbp - 24] ## 8-byte Reload
	mov	qword ptr [rcx], 0
	add	rsp, 32
	pop	rbp
	ret
	.cfi_endproc
                                        ## -- End function
	.p2align	4, 0x90         ## -- Begin function _ZNSt3__122__compressed_pair_elemINS_9allocatorIiEELi1ELb1EEC2Ev
__ZNSt3__122__compressed_pair_elemINS_9allocatorIiEELi1ELb1EEC2Ev: ## @_ZNSt3__122__compressed_pair_elemINS_9allocatorIiEELi1ELb1EEC2Ev
	.cfi_startproc
## %bb.0:
	push	rbp
	.cfi_def_cfa_offset 16
	.cfi_offset rbp, -16
	mov	rbp, rsp
	.cfi_def_cfa_register rbp
	sub	rsp, 16
	mov	qword ptr [rbp - 8], rdi
	mov	rax, qword ptr [rbp - 8]
	mov	rdi, rax
	call	__ZNSt3__19allocatorIiEC2Ev
	add	rsp, 16
	pop	rbp
	ret
	.cfi_endproc
                                        ## -- End function
	.p2align	4, 0x90         ## -- Begin function _ZNSt3__19allocatorIiEC2Ev
__ZNSt3__19allocatorIiEC2Ev:            ## @_ZNSt3__19allocatorIiEC2Ev
	.cfi_startproc
## %bb.0:
	push	rbp
	.cfi_def_cfa_offset 16
	.cfi_offset rbp, -16
	mov	rbp, rsp
	.cfi_def_cfa_register rbp
	mov	qword ptr [rbp - 8], rdi
	pop	rbp
	ret
	.cfi_endproc
                                        ## -- End function
	.p2align	4, 0x90         ## -- Begin function _ZNSt3__112basic_stringIcNS_11char_traitsIcEENS_9allocatorIcEEEaSEOS5_
__ZNSt3__112basic_stringIcNS_11char_traitsIcEENS_9allocatorIcEEEaSEOS5_: ## @_ZNSt3__112basic_stringIcNS_11char_traitsIcEENS_9allocatorIcEEEaSEOS5_
	.cfi_startproc
## %bb.0:
	push	rbp
	.cfi_def_cfa_offset 16
	.cfi_offset rbp, -16
	mov	rbp, rsp
	.cfi_def_cfa_register rbp
	sub	rsp, 32
	mov	qword ptr [rbp - 8], rdi
	mov	qword ptr [rbp - 16], rsi
	mov	rax, qword ptr [rbp - 8]
	mov	rsi, qword ptr [rbp - 16]
	mov	rdi, rax
	mov	qword ptr [rbp - 32], rax ## 8-byte Spill
	call	__ZNSt3__112basic_stringIcNS_11char_traitsIcEENS_9allocatorIcEEE13__move_assignERS5_NS_17integral_constantIbLb1EEE
	mov	rax, qword ptr [rbp - 32] ## 8-byte Reload
	add	rsp, 32
	pop	rbp
	ret
	.cfi_endproc
                                        ## -- End function
	.p2align	4, 0x90         ## -- Begin function _ZNSt3__112basic_stringIcNS_11char_traitsIcEENS_9allocatorIcEEE13__move_assignERS5_NS_17integral_constantIbLb1EEE
__ZNSt3__112basic_stringIcNS_11char_traitsIcEENS_9allocatorIcEEE13__move_assignERS5_NS_17integral_constantIbLb1EEE: ## @_ZNSt3__112basic_stringIcNS_11char_traitsIcEENS_9allocatorIcEEE13__move_assignERS5_NS_17integral_constantIbLb1EEE
	.cfi_startproc
## %bb.0:
	push	rbp
	.cfi_def_cfa_offset 16
	.cfi_offset rbp, -16
	mov	rbp, rsp
	.cfi_def_cfa_register rbp
	sub	rsp, 48
	mov	qword ptr [rbp - 16], rdi
	mov	qword ptr [rbp - 24], rsi
	mov	rax, qword ptr [rbp - 16]
	mov	rdi, rax
	mov	qword ptr [rbp - 32], rax ## 8-byte Spill
	call	__ZNSt3__112basic_stringIcNS_11char_traitsIcEENS_9allocatorIcEEE18__clear_and_shrinkEv
	mov	rdi, qword ptr [rbp - 24]
	call	__ZNSt3__117__compressed_pairINS_12basic_stringIcNS_11char_traitsIcEENS_9allocatorIcEEE5__repES5_E5firstEv
	mov	rdi, qword ptr [rbp - 32] ## 8-byte Reload
	mov	qword ptr [rbp - 40], rax ## 8-byte Spill
	call	__ZNSt3__117__compressed_pairINS_12basic_stringIcNS_11char_traitsIcEENS_9allocatorIcEEE5__repES5_E5firstEv
	mov	rcx, qword ptr [rbp - 40] ## 8-byte Reload
	mov	rdx, qword ptr [rcx]
	mov	qword ptr [rax], rdx
	mov	rdx, qword ptr [rcx + 8]
	mov	qword ptr [rax + 8], rdx
	mov	rdx, qword ptr [rcx + 16]
	mov	qword ptr [rax + 16], rdx
	mov	rsi, qword ptr [rbp - 24]
	mov	rdi, qword ptr [rbp - 32] ## 8-byte Reload
	call	__ZNSt3__112basic_stringIcNS_11char_traitsIcEENS_9allocatorIcEEE19__move_assign_allocERS5_
	mov	rdi, qword ptr [rbp - 24]
	call	__ZNSt3__112basic_stringIcNS_11char_traitsIcEENS_9allocatorIcEEE6__zeroEv
	add	rsp, 48
	pop	rbp
	ret
	.cfi_endproc
                                        ## -- End function
	.p2align	4, 0x90         ## -- Begin function _ZNSt3__112basic_stringIcNS_11char_traitsIcEENS_9allocatorIcEEE18__clear_and_shrinkEv
__ZNSt3__112basic_stringIcNS_11char_traitsIcEENS_9allocatorIcEEE18__clear_and_shrinkEv: ## @_ZNSt3__112basic_stringIcNS_11char_traitsIcEENS_9allocatorIcEEE18__clear_and_shrinkEv
	.cfi_startproc
## %bb.0:
	push	rbp
	.cfi_def_cfa_offset 16
	.cfi_offset rbp, -16
	mov	rbp, rsp
	.cfi_def_cfa_register rbp
	sub	rsp, 32
	mov	qword ptr [rbp - 8], rdi
	mov	rax, qword ptr [rbp - 8]
	mov	rdi, rax
	mov	qword ptr [rbp - 16], rax ## 8-byte Spill
	call	__ZNSt3__112basic_stringIcNS_11char_traitsIcEENS_9allocatorIcEEE5clearEv
	mov	rdi, qword ptr [rbp - 16] ## 8-byte Reload
	call	__ZNKSt3__112basic_stringIcNS_11char_traitsIcEENS_9allocatorIcEEE9__is_longEv
	test	al, 1
	jne	LBB161_1
	jmp	LBB161_2
LBB161_1:
	mov	rdi, qword ptr [rbp - 16] ## 8-byte Reload
	call	__ZNSt3__112basic_stringIcNS_11char_traitsIcEENS_9allocatorIcEEE7__allocEv
	mov	rdi, qword ptr [rbp - 16] ## 8-byte Reload
	mov	qword ptr [rbp - 24], rax ## 8-byte Spill
	call	__ZNSt3__112basic_stringIcNS_11char_traitsIcEENS_9allocatorIcEEE18__get_long_pointerEv
	mov	rdi, qword ptr [rbp - 16] ## 8-byte Reload
	mov	qword ptr [rbp - 32], rax ## 8-byte Spill
	call	__ZNKSt3__112basic_stringIcNS_11char_traitsIcEENS_9allocatorIcEEE8capacityEv
	add	rax, 1
	mov	rdi, qword ptr [rbp - 24] ## 8-byte Reload
	mov	rsi, qword ptr [rbp - 32] ## 8-byte Reload
	mov	rdx, rax
	call	__ZNSt3__116allocator_traitsINS_9allocatorIcEEE10deallocateERS2_Pcm
	xor	ecx, ecx
	mov	esi, ecx
	mov	rdi, qword ptr [rbp - 16] ## 8-byte Reload
	call	__ZNSt3__112basic_stringIcNS_11char_traitsIcEENS_9allocatorIcEEE14__set_long_capEm
	xor	ecx, ecx
	mov	esi, ecx
	mov	rdi, qword ptr [rbp - 16] ## 8-byte Reload
	call	__ZNSt3__112basic_stringIcNS_11char_traitsIcEENS_9allocatorIcEEE16__set_short_sizeEm
LBB161_2:
	add	rsp, 32
	pop	rbp
	ret
	.cfi_endproc
                                        ## -- End function
	.p2align	4, 0x90         ## -- Begin function _ZNSt3__112basic_stringIcNS_11char_traitsIcEENS_9allocatorIcEEE19__move_assign_allocERS5_
__ZNSt3__112basic_stringIcNS_11char_traitsIcEENS_9allocatorIcEEE19__move_assign_allocERS5_: ## @_ZNSt3__112basic_stringIcNS_11char_traitsIcEENS_9allocatorIcEEE19__move_assign_allocERS5_
	.cfi_startproc
## %bb.0:
	push	rbp
	.cfi_def_cfa_offset 16
	.cfi_offset rbp, -16
	mov	rbp, rsp
	.cfi_def_cfa_register rbp
	sub	rsp, 32
	mov	qword ptr [rbp - 8], rdi
	mov	qword ptr [rbp - 16], rsi
	mov	rdi, qword ptr [rbp - 8]
	mov	rsi, qword ptr [rbp - 16]
	call	__ZNSt3__112basic_stringIcNS_11char_traitsIcEENS_9allocatorIcEEE19__move_assign_allocERS5_NS_17integral_constantIbLb1EEE
	add	rsp, 32
	pop	rbp
	ret
	.cfi_endproc
                                        ## -- End function
	.p2align	4, 0x90         ## -- Begin function _ZNSt3__112basic_stringIcNS_11char_traitsIcEENS_9allocatorIcEEE6__zeroEv
__ZNSt3__112basic_stringIcNS_11char_traitsIcEENS_9allocatorIcEEE6__zeroEv: ## @_ZNSt3__112basic_stringIcNS_11char_traitsIcEENS_9allocatorIcEEE6__zeroEv
	.cfi_startproc
## %bb.0:
	push	rbp
	.cfi_def_cfa_offset 16
	.cfi_offset rbp, -16
	mov	rbp, rsp
	.cfi_def_cfa_register rbp
	sub	rsp, 32
	mov	qword ptr [rbp - 8], rdi
	mov	rdi, qword ptr [rbp - 8]
	call	__ZNSt3__117__compressed_pairINS_12basic_stringIcNS_11char_traitsIcEENS_9allocatorIcEEE5__repES5_E5firstEv
	mov	qword ptr [rbp - 16], rax
	mov	dword ptr [rbp - 20], 0
LBB163_1:                               ## =>This Inner Loop Header: Depth=1
	cmp	dword ptr [rbp - 20], 3
	jae	LBB163_4
## %bb.2:                               ##   in Loop: Header=BB163_1 Depth=1
	mov	rax, qword ptr [rbp - 16]
	mov	ecx, dword ptr [rbp - 20]
	mov	edx, ecx
	mov	qword ptr [rax + 8*rdx], 0
## %bb.3:                               ##   in Loop: Header=BB163_1 Depth=1
	mov	eax, dword ptr [rbp - 20]
	add	eax, 1
	mov	dword ptr [rbp - 20], eax
	jmp	LBB163_1
LBB163_4:
	add	rsp, 32
	pop	rbp
	ret
	.cfi_endproc
                                        ## -- End function
	.p2align	4, 0x90         ## -- Begin function _ZNSt3__112basic_stringIcNS_11char_traitsIcEENS_9allocatorIcEEE5clearEv
__ZNSt3__112basic_stringIcNS_11char_traitsIcEENS_9allocatorIcEEE5clearEv: ## @_ZNSt3__112basic_stringIcNS_11char_traitsIcEENS_9allocatorIcEEE5clearEv
Lfunc_begin17:
	.cfi_startproc
	.cfi_personality 155, ___gxx_personality_v0
	.cfi_lsda 16, Lexception17
## %bb.0:
	push	rbp
	.cfi_def_cfa_offset 16
	.cfi_offset rbp, -16
	mov	rbp, rsp
	.cfi_def_cfa_register rbp
	sub	rsp, 32
	mov	qword ptr [rbp - 8], rdi
	mov	rax, qword ptr [rbp - 8]
Ltmp215:
	mov	rdi, rax
	mov	qword ptr [rbp - 24], rax ## 8-byte Spill
	call	__ZNSt3__112basic_stringIcNS_11char_traitsIcEENS_9allocatorIcEEE26__invalidate_all_iteratorsEv
Ltmp216:
	jmp	LBB164_1
LBB164_1:
	mov	rdi, qword ptr [rbp - 24] ## 8-byte Reload
	call	__ZNKSt3__112basic_stringIcNS_11char_traitsIcEENS_9allocatorIcEEE9__is_longEv
	test	al, 1
	jne	LBB164_2
	jmp	LBB164_3
LBB164_2:
	mov	rdi, qword ptr [rbp - 24] ## 8-byte Reload
	call	__ZNSt3__112basic_stringIcNS_11char_traitsIcEENS_9allocatorIcEEE18__get_long_pointerEv
	mov	byte ptr [rbp - 9], 0
	mov	rdi, rax
	lea	rsi, [rbp - 9]
	call	__ZNSt3__111char_traitsIcE6assignERcRKc
	xor	ecx, ecx
	mov	esi, ecx
	mov	rdi, qword ptr [rbp - 24] ## 8-byte Reload
	call	__ZNSt3__112basic_stringIcNS_11char_traitsIcEENS_9allocatorIcEEE15__set_long_sizeEm
	jmp	LBB164_4
LBB164_3:
	mov	rdi, qword ptr [rbp - 24] ## 8-byte Reload
	call	__ZNSt3__112basic_stringIcNS_11char_traitsIcEENS_9allocatorIcEEE19__get_short_pointerEv
	mov	byte ptr [rbp - 10], 0
	mov	rdi, rax
	lea	rsi, [rbp - 10]
	call	__ZNSt3__111char_traitsIcE6assignERcRKc
	xor	ecx, ecx
	mov	esi, ecx
	mov	rdi, qword ptr [rbp - 24] ## 8-byte Reload
	call	__ZNSt3__112basic_stringIcNS_11char_traitsIcEENS_9allocatorIcEEE16__set_short_sizeEm
LBB164_4:
	add	rsp, 32
	pop	rbp
	ret
LBB164_5:
Ltmp217:
	mov	rdi, rax
	mov	qword ptr [rbp - 32], rdx ## 8-byte Spill
	call	___clang_call_terminate
Lfunc_end17:
	.cfi_endproc
	.section	__TEXT,__gcc_except_tab
	.p2align	2
GCC_except_table164:
Lexception17:
	.byte	255                     ## @LPStart Encoding = omit
	.byte	155                     ## @TType Encoding = indirect pcrel sdata4
	.uleb128 Lttbase12-Lttbaseref12
Lttbaseref12:
	.byte	1                       ## Call site Encoding = uleb128
	.uleb128 Lcst_end17-Lcst_begin17
Lcst_begin17:
	.uleb128 Ltmp215-Lfunc_begin17  ## >> Call Site 1 <<
	.uleb128 Ltmp216-Ltmp215        ##   Call between Ltmp215 and Ltmp216
	.uleb128 Ltmp217-Lfunc_begin17  ##     jumps to Ltmp217
	.byte	1                       ##   On action: 1
Lcst_end17:
	.byte	1                       ## >> Action Record 1 <<
                                        ##   Catch TypeInfo 1
	.byte	0                       ##   No further actions
	.p2align	2
                                        ## >> Catch TypeInfos <<
	.long	0                       ## TypeInfo 1
Lttbase12:
	.p2align	2
                                        ## -- End function
	.section	__TEXT,__text,regular,pure_instructions
	.p2align	4, 0x90         ## -- Begin function _ZNSt3__116allocator_traitsINS_9allocatorIcEEE10deallocateERS2_Pcm
__ZNSt3__116allocator_traitsINS_9allocatorIcEEE10deallocateERS2_Pcm: ## @_ZNSt3__116allocator_traitsINS_9allocatorIcEEE10deallocateERS2_Pcm
	.cfi_startproc
## %bb.0:
	push	rbp
	.cfi_def_cfa_offset 16
	.cfi_offset rbp, -16
	mov	rbp, rsp
	.cfi_def_cfa_register rbp
	sub	rsp, 32
	mov	qword ptr [rbp - 8], rdi
	mov	qword ptr [rbp - 16], rsi
	mov	qword ptr [rbp - 24], rdx
	mov	rdi, qword ptr [rbp - 8]
	mov	rsi, qword ptr [rbp - 16]
	mov	rdx, qword ptr [rbp - 24]
	call	__ZNSt3__19allocatorIcE10deallocateEPcm
	add	rsp, 32
	pop	rbp
	ret
	.cfi_endproc
                                        ## -- End function
	.p2align	4, 0x90         ## -- Begin function _ZNSt3__112basic_stringIcNS_11char_traitsIcEENS_9allocatorIcEEE7__allocEv
__ZNSt3__112basic_stringIcNS_11char_traitsIcEENS_9allocatorIcEEE7__allocEv: ## @_ZNSt3__112basic_stringIcNS_11char_traitsIcEENS_9allocatorIcEEE7__allocEv
	.cfi_startproc
## %bb.0:
	push	rbp
	.cfi_def_cfa_offset 16
	.cfi_offset rbp, -16
	mov	rbp, rsp
	.cfi_def_cfa_register rbp
	sub	rsp, 16
	mov	qword ptr [rbp - 8], rdi
	mov	rdi, qword ptr [rbp - 8]
	call	__ZNSt3__117__compressed_pairINS_12basic_stringIcNS_11char_traitsIcEENS_9allocatorIcEEE5__repES5_E6secondEv
	add	rsp, 16
	pop	rbp
	ret
	.cfi_endproc
                                        ## -- End function
	.p2align	4, 0x90         ## -- Begin function _ZNKSt3__112basic_stringIcNS_11char_traitsIcEENS_9allocatorIcEEE8capacityEv
__ZNKSt3__112basic_stringIcNS_11char_traitsIcEENS_9allocatorIcEEE8capacityEv: ## @_ZNKSt3__112basic_stringIcNS_11char_traitsIcEENS_9allocatorIcEEE8capacityEv
	.cfi_startproc
## %bb.0:
	push	rbp
	.cfi_def_cfa_offset 16
	.cfi_offset rbp, -16
	mov	rbp, rsp
	.cfi_def_cfa_register rbp
	sub	rsp, 32
	mov	qword ptr [rbp - 8], rdi
	mov	rax, qword ptr [rbp - 8]
	mov	rdi, rax
	mov	qword ptr [rbp - 16], rax ## 8-byte Spill
	call	__ZNKSt3__112basic_stringIcNS_11char_traitsIcEENS_9allocatorIcEEE9__is_longEv
	test	al, 1
	jne	LBB167_1
	jmp	LBB167_2
LBB167_1:
	mov	rdi, qword ptr [rbp - 16] ## 8-byte Reload
	call	__ZNKSt3__112basic_stringIcNS_11char_traitsIcEENS_9allocatorIcEEE14__get_long_capEv
	mov	qword ptr [rbp - 24], rax ## 8-byte Spill
	jmp	LBB167_3
LBB167_2:
	mov	eax, 23
	mov	qword ptr [rbp - 24], rax ## 8-byte Spill
	jmp	LBB167_3
LBB167_3:
	mov	rax, qword ptr [rbp - 24] ## 8-byte Reload
	sub	rax, 1
	add	rsp, 32
	pop	rbp
	ret
	.cfi_endproc
                                        ## -- End function
	.p2align	4, 0x90         ## -- Begin function _ZNSt3__112basic_stringIcNS_11char_traitsIcEENS_9allocatorIcEEE14__set_long_capEm
__ZNSt3__112basic_stringIcNS_11char_traitsIcEENS_9allocatorIcEEE14__set_long_capEm: ## @_ZNSt3__112basic_stringIcNS_11char_traitsIcEENS_9allocatorIcEEE14__set_long_capEm
	.cfi_startproc
## %bb.0:
	push	rbp
	.cfi_def_cfa_offset 16
	.cfi_offset rbp, -16
	mov	rbp, rsp
	.cfi_def_cfa_register rbp
	sub	rsp, 32
	mov	qword ptr [rbp - 8], rdi
	mov	qword ptr [rbp - 16], rsi
	mov	rdi, qword ptr [rbp - 8]
	mov	rax, qword ptr [rbp - 16]
	or	rax, 1
	mov	qword ptr [rbp - 24], rax ## 8-byte Spill
	call	__ZNSt3__117__compressed_pairINS_12basic_stringIcNS_11char_traitsIcEENS_9allocatorIcEEE5__repES5_E5firstEv
	mov	rcx, qword ptr [rbp - 24] ## 8-byte Reload
	mov	qword ptr [rax], rcx
	add	rsp, 32
	pop	rbp
	ret
	.cfi_endproc
                                        ## -- End function
	.p2align	4, 0x90         ## -- Begin function _ZNSt3__112basic_stringIcNS_11char_traitsIcEENS_9allocatorIcEEE16__set_short_sizeEm
__ZNSt3__112basic_stringIcNS_11char_traitsIcEENS_9allocatorIcEEE16__set_short_sizeEm: ## @_ZNSt3__112basic_stringIcNS_11char_traitsIcEENS_9allocatorIcEEE16__set_short_sizeEm
	.cfi_startproc
## %bb.0:
	push	rbp
	.cfi_def_cfa_offset 16
	.cfi_offset rbp, -16
	mov	rbp, rsp
	.cfi_def_cfa_register rbp
	sub	rsp, 32
	mov	qword ptr [rbp - 8], rdi
	mov	qword ptr [rbp - 16], rsi
	mov	rdi, qword ptr [rbp - 8]
	mov	rax, qword ptr [rbp - 16]
	shl	rax, 1
                                        ## kill: def $al killed $al killed $rax
	mov	byte ptr [rbp - 17], al ## 1-byte Spill
	call	__ZNSt3__117__compressed_pairINS_12basic_stringIcNS_11char_traitsIcEENS_9allocatorIcEEE5__repES5_E5firstEv
	mov	cl, byte ptr [rbp - 17] ## 1-byte Reload
	mov	byte ptr [rax], cl
	add	rsp, 32
	pop	rbp
	ret
	.cfi_endproc
                                        ## -- End function
	.p2align	4, 0x90         ## -- Begin function _ZNSt3__112basic_stringIcNS_11char_traitsIcEENS_9allocatorIcEEE26__invalidate_all_iteratorsEv
__ZNSt3__112basic_stringIcNS_11char_traitsIcEENS_9allocatorIcEEE26__invalidate_all_iteratorsEv: ## @_ZNSt3__112basic_stringIcNS_11char_traitsIcEENS_9allocatorIcEEE26__invalidate_all_iteratorsEv
	.cfi_startproc
## %bb.0:
	push	rbp
	.cfi_def_cfa_offset 16
	.cfi_offset rbp, -16
	mov	rbp, rsp
	.cfi_def_cfa_register rbp
	mov	qword ptr [rbp - 8], rdi
	pop	rbp
	ret
	.cfi_endproc
                                        ## -- End function
	.globl	__ZNSt3__111char_traitsIcE6assignERcRKc ## -- Begin function _ZNSt3__111char_traitsIcE6assignERcRKc
	.weak_definition	__ZNSt3__111char_traitsIcE6assignERcRKc
	.p2align	4, 0x90
__ZNSt3__111char_traitsIcE6assignERcRKc: ## @_ZNSt3__111char_traitsIcE6assignERcRKc
	.cfi_startproc
## %bb.0:
	push	rbp
	.cfi_def_cfa_offset 16
	.cfi_offset rbp, -16
	mov	rbp, rsp
	.cfi_def_cfa_register rbp
	mov	qword ptr [rbp - 8], rdi
	mov	qword ptr [rbp - 16], rsi
	mov	rax, qword ptr [rbp - 16]
	mov	cl, byte ptr [rax]
	mov	rax, qword ptr [rbp - 8]
	mov	byte ptr [rax], cl
	pop	rbp
	ret
	.cfi_endproc
                                        ## -- End function
	.p2align	4, 0x90         ## -- Begin function _ZNSt3__112basic_stringIcNS_11char_traitsIcEENS_9allocatorIcEEE15__set_long_sizeEm
__ZNSt3__112basic_stringIcNS_11char_traitsIcEENS_9allocatorIcEEE15__set_long_sizeEm: ## @_ZNSt3__112basic_stringIcNS_11char_traitsIcEENS_9allocatorIcEEE15__set_long_sizeEm
	.cfi_startproc
## %bb.0:
	push	rbp
	.cfi_def_cfa_offset 16
	.cfi_offset rbp, -16
	mov	rbp, rsp
	.cfi_def_cfa_register rbp
	sub	rsp, 32
	mov	qword ptr [rbp - 8], rdi
	mov	qword ptr [rbp - 16], rsi
	mov	rdi, qword ptr [rbp - 8]
	mov	rax, qword ptr [rbp - 16]
	mov	qword ptr [rbp - 24], rax ## 8-byte Spill
	call	__ZNSt3__117__compressed_pairINS_12basic_stringIcNS_11char_traitsIcEENS_9allocatorIcEEE5__repES5_E5firstEv
	mov	rcx, qword ptr [rbp - 24] ## 8-byte Reload
	mov	qword ptr [rax + 8], rcx
	add	rsp, 32
	pop	rbp
	ret
	.cfi_endproc
                                        ## -- End function
	.p2align	4, 0x90         ## -- Begin function _ZNSt3__19allocatorIcE10deallocateEPcm
__ZNSt3__19allocatorIcE10deallocateEPcm: ## @_ZNSt3__19allocatorIcE10deallocateEPcm
Lfunc_begin18:
	.cfi_startproc
	.cfi_personality 155, ___gxx_personality_v0
	.cfi_lsda 16, Lexception18
## %bb.0:
	push	rbp
	.cfi_def_cfa_offset 16
	.cfi_offset rbp, -16
	mov	rbp, rsp
	.cfi_def_cfa_register rbp
	sub	rsp, 32
	mov	qword ptr [rbp - 8], rdi
	mov	qword ptr [rbp - 16], rsi
	mov	qword ptr [rbp - 24], rdx
	mov	rdi, qword ptr [rbp - 16]
	mov	rsi, qword ptr [rbp - 24]
Ltmp218:
	mov	edx, 1
	call	__ZNSt3__1L19__libcpp_deallocateEPvmm
Ltmp219:
	jmp	LBB173_1
LBB173_1:
	add	rsp, 32
	pop	rbp
	ret
LBB173_2:
Ltmp220:
	mov	rdi, rax
	mov	qword ptr [rbp - 32], rdx ## 8-byte Spill
	call	___clang_call_terminate
Lfunc_end18:
	.cfi_endproc
	.section	__TEXT,__gcc_except_tab
	.p2align	2
GCC_except_table173:
Lexception18:
	.byte	255                     ## @LPStart Encoding = omit
	.byte	155                     ## @TType Encoding = indirect pcrel sdata4
	.uleb128 Lttbase13-Lttbaseref13
Lttbaseref13:
	.byte	1                       ## Call site Encoding = uleb128
	.uleb128 Lcst_end18-Lcst_begin18
Lcst_begin18:
	.uleb128 Ltmp218-Lfunc_begin18  ## >> Call Site 1 <<
	.uleb128 Ltmp219-Ltmp218        ##   Call between Ltmp218 and Ltmp219
	.uleb128 Ltmp220-Lfunc_begin18  ##     jumps to Ltmp220
	.byte	1                       ##   On action: 1
Lcst_end18:
	.byte	1                       ## >> Action Record 1 <<
                                        ##   Catch TypeInfo 1
	.byte	0                       ##   No further actions
	.p2align	2
                                        ## >> Catch TypeInfos <<
	.long	0                       ## TypeInfo 1
Lttbase13:
	.p2align	2
                                        ## -- End function
	.section	__TEXT,__text,regular,pure_instructions
	.p2align	4, 0x90         ## -- Begin function _ZNSt3__1L19__libcpp_deallocateEPvmm
__ZNSt3__1L19__libcpp_deallocateEPvmm:  ## @_ZNSt3__1L19__libcpp_deallocateEPvmm
	.cfi_startproc
## %bb.0:
	push	rbp
	.cfi_def_cfa_offset 16
	.cfi_offset rbp, -16
	mov	rbp, rsp
	.cfi_def_cfa_register rbp
	sub	rsp, 32
	mov	qword ptr [rbp - 8], rdi
	mov	qword ptr [rbp - 16], rsi
	mov	qword ptr [rbp - 24], rdx
	mov	rdi, qword ptr [rbp - 8]
	mov	rsi, qword ptr [rbp - 16]
	mov	rdx, qword ptr [rbp - 24]
	call	__ZNSt3__117_DeallocateCaller33__do_deallocate_handle_size_alignEPvmm
	add	rsp, 32
	pop	rbp
	ret
	.cfi_endproc
                                        ## -- End function
	.p2align	4, 0x90         ## -- Begin function _ZNSt3__117_DeallocateCaller33__do_deallocate_handle_size_alignEPvmm
__ZNSt3__117_DeallocateCaller33__do_deallocate_handle_size_alignEPvmm: ## @_ZNSt3__117_DeallocateCaller33__do_deallocate_handle_size_alignEPvmm
	.cfi_startproc
## %bb.0:
	push	rbp
	.cfi_def_cfa_offset 16
	.cfi_offset rbp, -16
	mov	rbp, rsp
	.cfi_def_cfa_register rbp
	sub	rsp, 32
	mov	qword ptr [rbp - 8], rdi
	mov	qword ptr [rbp - 16], rsi
	mov	qword ptr [rbp - 24], rdx
	mov	rdi, qword ptr [rbp - 24]
	call	__ZNSt3__1L24__is_overaligned_for_newEm
	test	al, 1
	jne	LBB175_1
	jmp	LBB175_2
LBB175_1:
	mov	rax, qword ptr [rbp - 24]
	mov	qword ptr [rbp - 32], rax
	mov	rdi, qword ptr [rbp - 8]
	mov	rsi, qword ptr [rbp - 16]
	mov	rdx, qword ptr [rbp - 32]
	call	__ZNSt3__117_DeallocateCaller27__do_deallocate_handle_sizeEPvmSt11align_val_t
	jmp	LBB175_3
LBB175_2:
	mov	rdi, qword ptr [rbp - 8]
	mov	rsi, qword ptr [rbp - 16]
	call	__ZNSt3__117_DeallocateCaller27__do_deallocate_handle_sizeEPvm
LBB175_3:
	add	rsp, 32
	pop	rbp
	ret
	.cfi_endproc
                                        ## -- End function
	.p2align	4, 0x90         ## -- Begin function _ZNSt3__1L24__is_overaligned_for_newEm
__ZNSt3__1L24__is_overaligned_for_newEm: ## @_ZNSt3__1L24__is_overaligned_for_newEm
	.cfi_startproc
## %bb.0:
	push	rbp
	.cfi_def_cfa_offset 16
	.cfi_offset rbp, -16
	mov	rbp, rsp
	.cfi_def_cfa_register rbp
	mov	qword ptr [rbp - 8], rdi
	cmp	qword ptr [rbp - 8], 16
	seta	al
	and	al, 1
	movzx	eax, al
	pop	rbp
	ret
	.cfi_endproc
                                        ## -- End function
	.globl	__ZNSt3__117_DeallocateCaller27__do_deallocate_handle_sizeEPvmSt11align_val_t ## -- Begin function _ZNSt3__117_DeallocateCaller27__do_deallocate_handle_sizeEPvmSt11align_val_t
	.weak_definition	__ZNSt3__117_DeallocateCaller27__do_deallocate_handle_sizeEPvmSt11align_val_t
	.p2align	4, 0x90
__ZNSt3__117_DeallocateCaller27__do_deallocate_handle_sizeEPvmSt11align_val_t: ## @_ZNSt3__117_DeallocateCaller27__do_deallocate_handle_sizeEPvmSt11align_val_t
	.cfi_startproc
## %bb.0:
	push	rbp
	.cfi_def_cfa_offset 16
	.cfi_offset rbp, -16
	mov	rbp, rsp
	.cfi_def_cfa_register rbp
	sub	rsp, 32
	mov	qword ptr [rbp - 8], rdi
	mov	qword ptr [rbp - 16], rsi
	mov	qword ptr [rbp - 24], rdx
	mov	rdi, qword ptr [rbp - 8]
	mov	rsi, qword ptr [rbp - 24]
	call	__ZNSt3__117_DeallocateCaller9__do_callISt11align_val_tEEvPvT_
	add	rsp, 32
	pop	rbp
	ret
	.cfi_endproc
                                        ## -- End function
	.globl	__ZNSt3__117_DeallocateCaller27__do_deallocate_handle_sizeEPvm ## -- Begin function _ZNSt3__117_DeallocateCaller27__do_deallocate_handle_sizeEPvm
	.weak_definition	__ZNSt3__117_DeallocateCaller27__do_deallocate_handle_sizeEPvm
	.p2align	4, 0x90
__ZNSt3__117_DeallocateCaller27__do_deallocate_handle_sizeEPvm: ## @_ZNSt3__117_DeallocateCaller27__do_deallocate_handle_sizeEPvm
	.cfi_startproc
## %bb.0:
	push	rbp
	.cfi_def_cfa_offset 16
	.cfi_offset rbp, -16
	mov	rbp, rsp
	.cfi_def_cfa_register rbp
	sub	rsp, 16
	mov	qword ptr [rbp - 8], rdi
	mov	qword ptr [rbp - 16], rsi
	mov	rdi, qword ptr [rbp - 8]
	call	__ZNSt3__117_DeallocateCaller9__do_callEPv
	add	rsp, 16
	pop	rbp
	ret
	.cfi_endproc
                                        ## -- End function
	.globl	__ZNSt3__117_DeallocateCaller9__do_callISt11align_val_tEEvPvT_ ## -- Begin function _ZNSt3__117_DeallocateCaller9__do_callISt11align_val_tEEvPvT_
	.weak_definition	__ZNSt3__117_DeallocateCaller9__do_callISt11align_val_tEEvPvT_
	.p2align	4, 0x90
__ZNSt3__117_DeallocateCaller9__do_callISt11align_val_tEEvPvT_: ## @_ZNSt3__117_DeallocateCaller9__do_callISt11align_val_tEEvPvT_
	.cfi_startproc
## %bb.0:
	push	rbp
	.cfi_def_cfa_offset 16
	.cfi_offset rbp, -16
	mov	rbp, rsp
	.cfi_def_cfa_register rbp
	sub	rsp, 16
	mov	qword ptr [rbp - 8], rdi
	mov	qword ptr [rbp - 16], rsi
	mov	rdi, qword ptr [rbp - 8]
	mov	rsi, qword ptr [rbp - 16]
	call	__ZdlPvSt11align_val_t
	add	rsp, 16
	pop	rbp
	ret
	.cfi_endproc
                                        ## -- End function
	.globl	__ZNSt3__117_DeallocateCaller9__do_callEPv ## -- Begin function _ZNSt3__117_DeallocateCaller9__do_callEPv
	.weak_definition	__ZNSt3__117_DeallocateCaller9__do_callEPv
	.p2align	4, 0x90
__ZNSt3__117_DeallocateCaller9__do_callEPv: ## @_ZNSt3__117_DeallocateCaller9__do_callEPv
	.cfi_startproc
## %bb.0:
	push	rbp
	.cfi_def_cfa_offset 16
	.cfi_offset rbp, -16
	mov	rbp, rsp
	.cfi_def_cfa_register rbp
	sub	rsp, 16
	mov	qword ptr [rbp - 8], rdi
	mov	rdi, qword ptr [rbp - 8]
	call	__ZdlPv
	add	rsp, 16
	pop	rbp
	ret
	.cfi_endproc
                                        ## -- End function
	.p2align	4, 0x90         ## -- Begin function _ZNSt3__117__compressed_pairINS_12basic_stringIcNS_11char_traitsIcEENS_9allocatorIcEEE5__repES5_E6secondEv
__ZNSt3__117__compressed_pairINS_12basic_stringIcNS_11char_traitsIcEENS_9allocatorIcEEE5__repES5_E6secondEv: ## @_ZNSt3__117__compressed_pairINS_12basic_stringIcNS_11char_traitsIcEENS_9allocatorIcEEE5__repES5_E6secondEv
	.cfi_startproc
## %bb.0:
	push	rbp
	.cfi_def_cfa_offset 16
	.cfi_offset rbp, -16
	mov	rbp, rsp
	.cfi_def_cfa_register rbp
	sub	rsp, 16
	mov	qword ptr [rbp - 8], rdi
	mov	rax, qword ptr [rbp - 8]
	mov	rdi, rax
	call	__ZNSt3__122__compressed_pair_elemINS_9allocatorIcEELi1ELb1EE5__getEv
	add	rsp, 16
	pop	rbp
	ret
	.cfi_endproc
                                        ## -- End function
	.p2align	4, 0x90         ## -- Begin function _ZNSt3__122__compressed_pair_elemINS_9allocatorIcEELi1ELb1EE5__getEv
__ZNSt3__122__compressed_pair_elemINS_9allocatorIcEELi1ELb1EE5__getEv: ## @_ZNSt3__122__compressed_pair_elemINS_9allocatorIcEELi1ELb1EE5__getEv
	.cfi_startproc
## %bb.0:
	push	rbp
	.cfi_def_cfa_offset 16
	.cfi_offset rbp, -16
	mov	rbp, rsp
	.cfi_def_cfa_register rbp
	mov	qword ptr [rbp - 8], rdi
	mov	rax, qword ptr [rbp - 8]
	pop	rbp
	ret
	.cfi_endproc
                                        ## -- End function
	.p2align	4, 0x90         ## -- Begin function _ZNKSt3__112basic_stringIcNS_11char_traitsIcEENS_9allocatorIcEEE14__get_long_capEv
__ZNKSt3__112basic_stringIcNS_11char_traitsIcEENS_9allocatorIcEEE14__get_long_capEv: ## @_ZNKSt3__112basic_stringIcNS_11char_traitsIcEENS_9allocatorIcEEE14__get_long_capEv
	.cfi_startproc
## %bb.0:
	push	rbp
	.cfi_def_cfa_offset 16
	.cfi_offset rbp, -16
	mov	rbp, rsp
	.cfi_def_cfa_register rbp
	sub	rsp, 16
	mov	qword ptr [rbp - 8], rdi
	mov	rdi, qword ptr [rbp - 8]
	call	__ZNKSt3__117__compressed_pairINS_12basic_stringIcNS_11char_traitsIcEENS_9allocatorIcEEE5__repES5_E5firstEv
	mov	rax, qword ptr [rax]
	and	rax, -2
	add	rsp, 16
	pop	rbp
	ret
	.cfi_endproc
                                        ## -- End function
	.p2align	4, 0x90         ## -- Begin function _ZNSt3__112basic_stringIcNS_11char_traitsIcEENS_9allocatorIcEEE19__move_assign_allocERS5_NS_17integral_constantIbLb1EEE
__ZNSt3__112basic_stringIcNS_11char_traitsIcEENS_9allocatorIcEEE19__move_assign_allocERS5_NS_17integral_constantIbLb1EEE: ## @_ZNSt3__112basic_stringIcNS_11char_traitsIcEENS_9allocatorIcEEE19__move_assign_allocERS5_NS_17integral_constantIbLb1EEE
	.cfi_startproc
## %bb.0:
	push	rbp
	.cfi_def_cfa_offset 16
	.cfi_offset rbp, -16
	mov	rbp, rsp
	.cfi_def_cfa_register rbp
	sub	rsp, 48
	mov	qword ptr [rbp - 16], rdi
	mov	qword ptr [rbp - 24], rsi
	mov	rdi, qword ptr [rbp - 16]
	mov	rax, qword ptr [rbp - 24]
	mov	qword ptr [rbp - 32], rdi ## 8-byte Spill
	mov	rdi, rax
	call	__ZNSt3__112basic_stringIcNS_11char_traitsIcEENS_9allocatorIcEEE7__allocEv
	mov	rdi, rax
	call	__ZNSt3__1L4moveIRNS_9allocatorIcEEEEONS_16remove_referenceIT_E4typeEOS5_
	mov	rdi, qword ptr [rbp - 32] ## 8-byte Reload
	mov	qword ptr [rbp - 40], rax ## 8-byte Spill
	call	__ZNSt3__112basic_stringIcNS_11char_traitsIcEENS_9allocatorIcEEE7__allocEv
	add	rsp, 48
	pop	rbp
	ret
	.cfi_endproc
                                        ## -- End function
	.p2align	4, 0x90         ## -- Begin function _ZNSt3__1L4moveIRNS_9allocatorIcEEEEONS_16remove_referenceIT_E4typeEOS5_
__ZNSt3__1L4moveIRNS_9allocatorIcEEEEONS_16remove_referenceIT_E4typeEOS5_: ## @_ZNSt3__1L4moveIRNS_9allocatorIcEEEEONS_16remove_referenceIT_E4typeEOS5_
	.cfi_startproc
## %bb.0:
	push	rbp
	.cfi_def_cfa_offset 16
	.cfi_offset rbp, -16
	mov	rbp, rsp
	.cfi_def_cfa_register rbp
	mov	qword ptr [rbp - 8], rdi
	mov	rax, qword ptr [rbp - 8]
	pop	rbp
	ret
	.cfi_endproc
                                        ## -- End function
	.globl	__ZN12ConfiguratorD2Ev  ## -- Begin function _ZN12ConfiguratorD2Ev
	.weak_def_can_be_hidden	__ZN12ConfiguratorD2Ev
	.p2align	4, 0x90
__ZN12ConfiguratorD2Ev:                 ## @_ZN12ConfiguratorD2Ev
	.cfi_startproc
## %bb.0:
	push	rbp
	.cfi_def_cfa_offset 16
	.cfi_offset rbp, -16
	mov	rbp, rsp
	.cfi_def_cfa_register rbp
	sub	rsp, 16
	mov	qword ptr [rbp - 8], rdi
	mov	rax, qword ptr [rbp - 8]
	mov	rcx, rax
	add	rcx, 24
	mov	rdi, rcx
	mov	qword ptr [rbp - 16], rax ## 8-byte Spill
	call	__ZNSt3__112basic_stringIcNS_11char_traitsIcEENS_9allocatorIcEEED1Ev
	mov	rdi, qword ptr [rbp - 16] ## 8-byte Reload
	call	__ZNSt3__112basic_stringIcNS_11char_traitsIcEENS_9allocatorIcEEED1Ev
	add	rsp, 16
	pop	rbp
	ret
	.cfi_endproc
                                        ## -- End function
	.p2align	4, 0x90         ## -- Begin function _ZNSt3__113__vector_baseIP5ValueNS_9allocatorIS2_EEE9__end_capEv
__ZNSt3__113__vector_baseIP5ValueNS_9allocatorIS2_EEE9__end_capEv: ## @_ZNSt3__113__vector_baseIP5ValueNS_9allocatorIS2_EEE9__end_capEv
	.cfi_startproc
## %bb.0:
	push	rbp
	.cfi_def_cfa_offset 16
	.cfi_offset rbp, -16
	mov	rbp, rsp
	.cfi_def_cfa_register rbp
	sub	rsp, 16
	mov	qword ptr [rbp - 8], rdi
	mov	rax, qword ptr [rbp - 8]
	add	rax, 16
	mov	rdi, rax
	call	__ZNSt3__117__compressed_pairIPP5ValueNS_9allocatorIS2_EEE5firstEv
	add	rsp, 16
	pop	rbp
	ret
	.cfi_endproc
                                        ## -- End function
	.p2align	4, 0x90         ## -- Begin function _ZNSt3__16vectorIP5ValueNS_9allocatorIS2_EEE24__RAII_IncreaseAnnotatorC1ERKS5_m
__ZNSt3__16vectorIP5ValueNS_9allocatorIS2_EEE24__RAII_IncreaseAnnotatorC1ERKS5_m: ## @_ZNSt3__16vectorIP5ValueNS_9allocatorIS2_EEE24__RAII_IncreaseAnnotatorC1ERKS5_m
	.cfi_startproc
## %bb.0:
	push	rbp
	.cfi_def_cfa_offset 16
	.cfi_offset rbp, -16
	mov	rbp, rsp
	.cfi_def_cfa_register rbp
	sub	rsp, 32
	mov	qword ptr [rbp - 8], rdi
	mov	qword ptr [rbp - 16], rsi
	mov	qword ptr [rbp - 24], rdx
	mov	rdi, qword ptr [rbp - 8]
	mov	rsi, qword ptr [rbp - 16]
	mov	rdx, qword ptr [rbp - 24]
	call	__ZNSt3__16vectorIP5ValueNS_9allocatorIS2_EEE24__RAII_IncreaseAnnotatorC2ERKS5_m
	add	rsp, 32
	pop	rbp
	ret
	.cfi_endproc
                                        ## -- End function
	.p2align	4, 0x90         ## -- Begin function _ZNSt3__116allocator_traitsINS_9allocatorIP5ValueEEE9constructIS3_JRKS3_EEEvRS4_PT_DpOT0_
__ZNSt3__116allocator_traitsINS_9allocatorIP5ValueEEE9constructIS3_JRKS3_EEEvRS4_PT_DpOT0_: ## @_ZNSt3__116allocator_traitsINS_9allocatorIP5ValueEEE9constructIS3_JRKS3_EEEvRS4_PT_DpOT0_
	.cfi_startproc
## %bb.0:
	push	rbp
	.cfi_def_cfa_offset 16
	.cfi_offset rbp, -16
	mov	rbp, rsp
	.cfi_def_cfa_register rbp
	sub	rsp, 64
	mov	qword ptr [rbp - 8], rdi
	mov	qword ptr [rbp - 16], rsi
	mov	qword ptr [rbp - 24], rdx
	mov	rdi, qword ptr [rbp - 8]
	mov	rsi, qword ptr [rbp - 16]
	mov	rax, qword ptr [rbp - 24]
	mov	qword ptr [rbp - 48], rdi ## 8-byte Spill
	mov	rdi, rax
	mov	qword ptr [rbp - 56], rsi ## 8-byte Spill
	call	__ZNSt3__1L7forwardIRKP5ValueEEOT_RNS_16remove_referenceIS5_E4typeE
	mov	rdi, qword ptr [rbp - 48] ## 8-byte Reload
	mov	rsi, qword ptr [rbp - 56] ## 8-byte Reload
	mov	rdx, rax
	call	__ZNSt3__116allocator_traitsINS_9allocatorIP5ValueEEE11__constructIS3_JRKS3_EEEvNS_17integral_constantIbLb1EEERS4_PT_DpOT0_
	add	rsp, 64
	pop	rbp
	ret
	.cfi_endproc
                                        ## -- End function
	.p2align	4, 0x90         ## -- Begin function _ZNSt3__113__vector_baseIP5ValueNS_9allocatorIS2_EEE7__allocEv
__ZNSt3__113__vector_baseIP5ValueNS_9allocatorIS2_EEE7__allocEv: ## @_ZNSt3__113__vector_baseIP5ValueNS_9allocatorIS2_EEE7__allocEv
	.cfi_startproc
## %bb.0:
	push	rbp
	.cfi_def_cfa_offset 16
	.cfi_offset rbp, -16
	mov	rbp, rsp
	.cfi_def_cfa_register rbp
	sub	rsp, 16
	mov	qword ptr [rbp - 8], rdi
	mov	rax, qword ptr [rbp - 8]
	add	rax, 16
	mov	rdi, rax
	call	__ZNSt3__117__compressed_pairIPP5ValueNS_9allocatorIS2_EEE6secondEv
	add	rsp, 16
	pop	rbp
	ret
	.cfi_endproc
                                        ## -- End function
	.p2align	4, 0x90         ## -- Begin function _ZNSt3__1L16__to_raw_pointerIP5ValueEEPT_S4_
__ZNSt3__1L16__to_raw_pointerIP5ValueEEPT_S4_: ## @_ZNSt3__1L16__to_raw_pointerIP5ValueEEPT_S4_
	.cfi_startproc
## %bb.0:
	push	rbp
	.cfi_def_cfa_offset 16
	.cfi_offset rbp, -16
	mov	rbp, rsp
	.cfi_def_cfa_register rbp
	mov	qword ptr [rbp - 8], rdi
	mov	rax, qword ptr [rbp - 8]
	pop	rbp
	ret
	.cfi_endproc
                                        ## -- End function
	.p2align	4, 0x90         ## -- Begin function _ZNSt3__16vectorIP5ValueNS_9allocatorIS2_EEE24__RAII_IncreaseAnnotator6__doneEv
__ZNSt3__16vectorIP5ValueNS_9allocatorIS2_EEE24__RAII_IncreaseAnnotator6__doneEv: ## @_ZNSt3__16vectorIP5ValueNS_9allocatorIS2_EEE24__RAII_IncreaseAnnotator6__doneEv
	.cfi_startproc
## %bb.0:
	push	rbp
	.cfi_def_cfa_offset 16
	.cfi_offset rbp, -16
	mov	rbp, rsp
	.cfi_def_cfa_register rbp
	mov	qword ptr [rbp - 8], rdi
	pop	rbp
	ret
	.cfi_endproc
                                        ## -- End function
	.globl	__ZNSt3__16vectorIP5ValueNS_9allocatorIS2_EEE21__push_back_slow_pathIRKS2_EEvOT_ ## -- Begin function _ZNSt3__16vectorIP5ValueNS_9allocatorIS2_EEE21__push_back_slow_pathIRKS2_EEvOT_
	.weak_definition	__ZNSt3__16vectorIP5ValueNS_9allocatorIS2_EEE21__push_back_slow_pathIRKS2_EEvOT_
	.p2align	4, 0x90
__ZNSt3__16vectorIP5ValueNS_9allocatorIS2_EEE21__push_back_slow_pathIRKS2_EEvOT_: ## @_ZNSt3__16vectorIP5ValueNS_9allocatorIS2_EEE21__push_back_slow_pathIRKS2_EEvOT_
Lfunc_begin19:
	.cfi_startproc
	.cfi_personality 155, ___gxx_personality_v0
	.cfi_lsda 16, Lexception19
## %bb.0:
	push	rbp
	.cfi_def_cfa_offset 16
	.cfi_offset rbp, -16
	mov	rbp, rsp
	.cfi_def_cfa_register rbp
	sub	rsp, 112
	mov	qword ptr [rbp - 8], rdi
	mov	qword ptr [rbp - 16], rsi
	mov	rax, qword ptr [rbp - 8]
	mov	rdi, rax
	mov	qword ptr [rbp - 88], rax ## 8-byte Spill
	call	__ZNSt3__113__vector_baseIP5ValueNS_9allocatorIS2_EEE7__allocEv
	mov	qword ptr [rbp - 24], rax
	mov	rdi, qword ptr [rbp - 88] ## 8-byte Reload
	call	__ZNKSt3__16vectorIP5ValueNS_9allocatorIS2_EEE4sizeEv
	inc	rax
	mov	rdi, qword ptr [rbp - 88] ## 8-byte Reload
	mov	rsi, rax
	call	__ZNKSt3__16vectorIP5ValueNS_9allocatorIS2_EEE11__recommendEm
	mov	rdi, qword ptr [rbp - 88] ## 8-byte Reload
	mov	qword ptr [rbp - 96], rax ## 8-byte Spill
	call	__ZNKSt3__16vectorIP5ValueNS_9allocatorIS2_EEE4sizeEv
	mov	rcx, qword ptr [rbp - 24]
	lea	rdi, [rbp - 64]
	mov	rsi, qword ptr [rbp - 96] ## 8-byte Reload
	mov	rdx, rax
	call	__ZNSt3__114__split_bufferIP5ValueRNS_9allocatorIS2_EEEC1EmmS5_
	mov	rdi, qword ptr [rbp - 24]
	mov	rax, qword ptr [rbp - 48]
	mov	qword ptr [rbp - 104], rdi ## 8-byte Spill
	mov	rdi, rax
	call	__ZNSt3__1L16__to_raw_pointerIP5ValueEEPT_S4_
	mov	rdi, qword ptr [rbp - 16]
	mov	qword ptr [rbp - 112], rax ## 8-byte Spill
	call	__ZNSt3__1L7forwardIRKP5ValueEEOT_RNS_16remove_referenceIS5_E4typeE
Ltmp221:
	mov	rdi, qword ptr [rbp - 104] ## 8-byte Reload
	mov	rsi, qword ptr [rbp - 112] ## 8-byte Reload
	mov	rdx, rax
	call	__ZNSt3__116allocator_traitsINS_9allocatorIP5ValueEEE9constructIS3_JRKS3_EEEvRS4_PT_DpOT0_
Ltmp222:
	jmp	LBB193_1
LBB193_1:
	mov	rax, qword ptr [rbp - 48]
	add	rax, 8
	mov	qword ptr [rbp - 48], rax
Ltmp223:
	lea	rsi, [rbp - 64]
	mov	rdi, qword ptr [rbp - 88] ## 8-byte Reload
	call	__ZNSt3__16vectorIP5ValueNS_9allocatorIS2_EEE26__swap_out_circular_bufferERNS_14__split_bufferIS2_RS4_EE
Ltmp224:
	jmp	LBB193_2
LBB193_2:
	lea	rdi, [rbp - 64]
	call	__ZNSt3__114__split_bufferIP5ValueRNS_9allocatorIS2_EEED1Ev
	add	rsp, 112
	pop	rbp
	ret
LBB193_3:
Ltmp225:
                                        ## kill: def $edx killed $edx killed $rdx
	mov	qword ptr [rbp - 72], rax
	mov	dword ptr [rbp - 76], edx
	lea	rdi, [rbp - 64]
	call	__ZNSt3__114__split_bufferIP5ValueRNS_9allocatorIS2_EEED1Ev
## %bb.4:
	mov	rdi, qword ptr [rbp - 72]
	call	__Unwind_Resume
	ud2
Lfunc_end19:
	.cfi_endproc
	.section	__TEXT,__gcc_except_tab
	.p2align	2
GCC_except_table193:
Lexception19:
	.byte	255                     ## @LPStart Encoding = omit
	.byte	255                     ## @TType Encoding = omit
	.byte	1                       ## Call site Encoding = uleb128
	.uleb128 Lcst_end19-Lcst_begin19
Lcst_begin19:
	.uleb128 Lfunc_begin19-Lfunc_begin19 ## >> Call Site 1 <<
	.uleb128 Ltmp221-Lfunc_begin19  ##   Call between Lfunc_begin19 and Ltmp221
	.byte	0                       ##     has no landing pad
	.byte	0                       ##   On action: cleanup
	.uleb128 Ltmp221-Lfunc_begin19  ## >> Call Site 2 <<
	.uleb128 Ltmp224-Ltmp221        ##   Call between Ltmp221 and Ltmp224
	.uleb128 Ltmp225-Lfunc_begin19  ##     jumps to Ltmp225
	.byte	0                       ##   On action: cleanup
	.uleb128 Ltmp224-Lfunc_begin19  ## >> Call Site 3 <<
	.uleb128 Lfunc_end19-Ltmp224    ##   Call between Ltmp224 and Lfunc_end19
	.byte	0                       ##     has no landing pad
	.byte	0                       ##   On action: cleanup
Lcst_end19:
	.p2align	2
                                        ## -- End function
	.section	__TEXT,__text,regular,pure_instructions
	.p2align	4, 0x90         ## -- Begin function _ZNSt3__117__compressed_pairIPP5ValueNS_9allocatorIS2_EEE5firstEv
__ZNSt3__117__compressed_pairIPP5ValueNS_9allocatorIS2_EEE5firstEv: ## @_ZNSt3__117__compressed_pairIPP5ValueNS_9allocatorIS2_EEE5firstEv
	.cfi_startproc
## %bb.0:
	push	rbp
	.cfi_def_cfa_offset 16
	.cfi_offset rbp, -16
	mov	rbp, rsp
	.cfi_def_cfa_register rbp
	sub	rsp, 16
	mov	qword ptr [rbp - 8], rdi
	mov	rax, qword ptr [rbp - 8]
	mov	rdi, rax
	call	__ZNSt3__122__compressed_pair_elemIPP5ValueLi0ELb0EE5__getEv
	add	rsp, 16
	pop	rbp
	ret
	.cfi_endproc
                                        ## -- End function
	.p2align	4, 0x90         ## -- Begin function _ZNSt3__122__compressed_pair_elemIPP5ValueLi0ELb0EE5__getEv
__ZNSt3__122__compressed_pair_elemIPP5ValueLi0ELb0EE5__getEv: ## @_ZNSt3__122__compressed_pair_elemIPP5ValueLi0ELb0EE5__getEv
	.cfi_startproc
## %bb.0:
	push	rbp
	.cfi_def_cfa_offset 16
	.cfi_offset rbp, -16
	mov	rbp, rsp
	.cfi_def_cfa_register rbp
	mov	qword ptr [rbp - 8], rdi
	mov	rax, qword ptr [rbp - 8]
	pop	rbp
	ret
	.cfi_endproc
                                        ## -- End function
	.p2align	4, 0x90         ## -- Begin function _ZNSt3__16vectorIP5ValueNS_9allocatorIS2_EEE24__RAII_IncreaseAnnotatorC2ERKS5_m
__ZNSt3__16vectorIP5ValueNS_9allocatorIS2_EEE24__RAII_IncreaseAnnotatorC2ERKS5_m: ## @_ZNSt3__16vectorIP5ValueNS_9allocatorIS2_EEE24__RAII_IncreaseAnnotatorC2ERKS5_m
	.cfi_startproc
## %bb.0:
	push	rbp
	.cfi_def_cfa_offset 16
	.cfi_offset rbp, -16
	mov	rbp, rsp
	.cfi_def_cfa_register rbp
	mov	qword ptr [rbp - 8], rdi
	mov	qword ptr [rbp - 16], rsi
	mov	qword ptr [rbp - 24], rdx
	pop	rbp
	ret
	.cfi_endproc
                                        ## -- End function
	.p2align	4, 0x90         ## -- Begin function _ZNSt3__116allocator_traitsINS_9allocatorIP5ValueEEE11__constructIS3_JRKS3_EEEvNS_17integral_constantIbLb1EEERS4_PT_DpOT0_
__ZNSt3__116allocator_traitsINS_9allocatorIP5ValueEEE11__constructIS3_JRKS3_EEEvNS_17integral_constantIbLb1EEERS4_PT_DpOT0_: ## @_ZNSt3__116allocator_traitsINS_9allocatorIP5ValueEEE11__constructIS3_JRKS3_EEEvNS_17integral_constantIbLb1EEERS4_PT_DpOT0_
	.cfi_startproc
## %bb.0:
	push	rbp
	.cfi_def_cfa_offset 16
	.cfi_offset rbp, -16
	mov	rbp, rsp
	.cfi_def_cfa_register rbp
	sub	rsp, 48
	mov	qword ptr [rbp - 16], rdi
	mov	qword ptr [rbp - 24], rsi
	mov	qword ptr [rbp - 32], rdx
	mov	rdi, qword ptr [rbp - 16]
	mov	rsi, qword ptr [rbp - 24]
	mov	rax, qword ptr [rbp - 32]
	mov	qword ptr [rbp - 40], rdi ## 8-byte Spill
	mov	rdi, rax
	mov	qword ptr [rbp - 48], rsi ## 8-byte Spill
	call	__ZNSt3__1L7forwardIRKP5ValueEEOT_RNS_16remove_referenceIS5_E4typeE
	mov	rdi, qword ptr [rbp - 40] ## 8-byte Reload
	mov	rsi, qword ptr [rbp - 48] ## 8-byte Reload
	mov	rdx, rax
	call	__ZNSt3__19allocatorIP5ValueE9constructIS2_JRKS2_EEEvPT_DpOT0_
	add	rsp, 48
	pop	rbp
	ret
	.cfi_endproc
                                        ## -- End function
	.p2align	4, 0x90         ## -- Begin function _ZNSt3__1L7forwardIRKP5ValueEEOT_RNS_16remove_referenceIS5_E4typeE
__ZNSt3__1L7forwardIRKP5ValueEEOT_RNS_16remove_referenceIS5_E4typeE: ## @_ZNSt3__1L7forwardIRKP5ValueEEOT_RNS_16remove_referenceIS5_E4typeE
	.cfi_startproc
## %bb.0:
	push	rbp
	.cfi_def_cfa_offset 16
	.cfi_offset rbp, -16
	mov	rbp, rsp
	.cfi_def_cfa_register rbp
	mov	qword ptr [rbp - 8], rdi
	mov	rax, qword ptr [rbp - 8]
	pop	rbp
	ret
	.cfi_endproc
                                        ## -- End function
	.p2align	4, 0x90         ## -- Begin function _ZNSt3__19allocatorIP5ValueE9constructIS2_JRKS2_EEEvPT_DpOT0_
__ZNSt3__19allocatorIP5ValueE9constructIS2_JRKS2_EEEvPT_DpOT0_: ## @_ZNSt3__19allocatorIP5ValueE9constructIS2_JRKS2_EEEvPT_DpOT0_
	.cfi_startproc
## %bb.0:
	push	rbp
	.cfi_def_cfa_offset 16
	.cfi_offset rbp, -16
	mov	rbp, rsp
	.cfi_def_cfa_register rbp
	sub	rsp, 32
	mov	qword ptr [rbp - 8], rdi
	mov	qword ptr [rbp - 16], rsi
	mov	qword ptr [rbp - 24], rdx
	mov	rax, qword ptr [rbp - 16]
	mov	rdi, qword ptr [rbp - 24]
	mov	qword ptr [rbp - 32], rax ## 8-byte Spill
	call	__ZNSt3__1L7forwardIRKP5ValueEEOT_RNS_16remove_referenceIS5_E4typeE
	mov	rax, qword ptr [rax]
	mov	rcx, qword ptr [rbp - 32] ## 8-byte Reload
	mov	qword ptr [rcx], rax
	add	rsp, 32
	pop	rbp
	ret
	.cfi_endproc
                                        ## -- End function
	.p2align	4, 0x90         ## -- Begin function _ZNSt3__117__compressed_pairIPP5ValueNS_9allocatorIS2_EEE6secondEv
__ZNSt3__117__compressed_pairIPP5ValueNS_9allocatorIS2_EEE6secondEv: ## @_ZNSt3__117__compressed_pairIPP5ValueNS_9allocatorIS2_EEE6secondEv
	.cfi_startproc
## %bb.0:
	push	rbp
	.cfi_def_cfa_offset 16
	.cfi_offset rbp, -16
	mov	rbp, rsp
	.cfi_def_cfa_register rbp
	sub	rsp, 16
	mov	qword ptr [rbp - 8], rdi
	mov	rax, qword ptr [rbp - 8]
	mov	rdi, rax
	call	__ZNSt3__122__compressed_pair_elemINS_9allocatorIP5ValueEELi1ELb1EE5__getEv
	add	rsp, 16
	pop	rbp
	ret
	.cfi_endproc
                                        ## -- End function
	.p2align	4, 0x90         ## -- Begin function _ZNSt3__122__compressed_pair_elemINS_9allocatorIP5ValueEELi1ELb1EE5__getEv
__ZNSt3__122__compressed_pair_elemINS_9allocatorIP5ValueEELi1ELb1EE5__getEv: ## @_ZNSt3__122__compressed_pair_elemINS_9allocatorIP5ValueEELi1ELb1EE5__getEv
	.cfi_startproc
## %bb.0:
	push	rbp
	.cfi_def_cfa_offset 16
	.cfi_offset rbp, -16
	mov	rbp, rsp
	.cfi_def_cfa_register rbp
	mov	qword ptr [rbp - 8], rdi
	mov	rax, qword ptr [rbp - 8]
	pop	rbp
	ret
	.cfi_endproc
                                        ## -- End function
	.p2align	4, 0x90         ## -- Begin function _ZNKSt3__16vectorIP5ValueNS_9allocatorIS2_EEE11__recommendEm
__ZNKSt3__16vectorIP5ValueNS_9allocatorIS2_EEE11__recommendEm: ## @_ZNKSt3__16vectorIP5ValueNS_9allocatorIS2_EEE11__recommendEm
	.cfi_startproc
## %bb.0:
	push	rbp
	.cfi_def_cfa_offset 16
	.cfi_offset rbp, -16
	mov	rbp, rsp
	.cfi_def_cfa_register rbp
	sub	rsp, 64
	mov	qword ptr [rbp - 16], rdi
	mov	qword ptr [rbp - 24], rsi
	mov	rax, qword ptr [rbp - 16]
	mov	rdi, rax
	mov	qword ptr [rbp - 56], rax ## 8-byte Spill
	call	__ZNKSt3__16vectorIP5ValueNS_9allocatorIS2_EEE8max_sizeEv
	mov	qword ptr [rbp - 32], rax
	mov	rax, qword ptr [rbp - 24]
	cmp	rax, qword ptr [rbp - 32]
	jbe	LBB202_2
## %bb.1:
	mov	rdi, qword ptr [rbp - 56] ## 8-byte Reload
	call	__ZNKSt3__120__vector_base_commonILb1EE20__throw_length_errorEv
LBB202_2:
	mov	rdi, qword ptr [rbp - 56] ## 8-byte Reload
	call	__ZNKSt3__16vectorIP5ValueNS_9allocatorIS2_EEE8capacityEv
	mov	qword ptr [rbp - 40], rax
	mov	rax, qword ptr [rbp - 40]
	mov	rcx, qword ptr [rbp - 32]
	shr	rcx, 1
	cmp	rax, rcx
	jb	LBB202_4
## %bb.3:
	mov	rax, qword ptr [rbp - 32]
	mov	qword ptr [rbp - 8], rax
	jmp	LBB202_5
LBB202_4:
	mov	rax, qword ptr [rbp - 40]
	shl	rax, 1
	mov	qword ptr [rbp - 48], rax
	lea	rdi, [rbp - 48]
	lea	rsi, [rbp - 24]
	call	__ZNSt3__1L3maxImEERKT_S3_S3_
	mov	rax, qword ptr [rax]
	mov	qword ptr [rbp - 8], rax
LBB202_5:
	mov	rax, qword ptr [rbp - 8]
	add	rsp, 64
	pop	rbp
	ret
	.cfi_endproc
                                        ## -- End function
	.p2align	4, 0x90         ## -- Begin function _ZNKSt3__16vectorIP5ValueNS_9allocatorIS2_EEE4sizeEv
__ZNKSt3__16vectorIP5ValueNS_9allocatorIS2_EEE4sizeEv: ## @_ZNKSt3__16vectorIP5ValueNS_9allocatorIS2_EEE4sizeEv
	.cfi_startproc
## %bb.0:
	push	rbp
	.cfi_def_cfa_offset 16
	.cfi_offset rbp, -16
	mov	rbp, rsp
	.cfi_def_cfa_register rbp
	mov	qword ptr [rbp - 8], rdi
	mov	rax, qword ptr [rbp - 8]
	mov	rcx, qword ptr [rax + 8]
	mov	rax, qword ptr [rax]
	sub	rcx, rax
	sar	rcx, 3
	mov	rax, rcx
	pop	rbp
	ret
	.cfi_endproc
                                        ## -- End function
	.globl	__ZNSt3__114__split_bufferIP5ValueRNS_9allocatorIS2_EEEC1EmmS5_ ## -- Begin function _ZNSt3__114__split_bufferIP5ValueRNS_9allocatorIS2_EEEC1EmmS5_
	.weak_def_can_be_hidden	__ZNSt3__114__split_bufferIP5ValueRNS_9allocatorIS2_EEEC1EmmS5_
	.p2align	4, 0x90
__ZNSt3__114__split_bufferIP5ValueRNS_9allocatorIS2_EEEC1EmmS5_: ## @_ZNSt3__114__split_bufferIP5ValueRNS_9allocatorIS2_EEEC1EmmS5_
	.cfi_startproc
## %bb.0:
	push	rbp
	.cfi_def_cfa_offset 16
	.cfi_offset rbp, -16
	mov	rbp, rsp
	.cfi_def_cfa_register rbp
	sub	rsp, 32
	mov	qword ptr [rbp - 8], rdi
	mov	qword ptr [rbp - 16], rsi
	mov	qword ptr [rbp - 24], rdx
	mov	qword ptr [rbp - 32], rcx
	mov	rdi, qword ptr [rbp - 8]
	mov	rsi, qword ptr [rbp - 16]
	mov	rdx, qword ptr [rbp - 24]
	mov	rcx, qword ptr [rbp - 32]
	call	__ZNSt3__114__split_bufferIP5ValueRNS_9allocatorIS2_EEEC2EmmS5_
	add	rsp, 32
	pop	rbp
	ret
	.cfi_endproc
                                        ## -- End function
	.globl	__ZNSt3__16vectorIP5ValueNS_9allocatorIS2_EEE26__swap_out_circular_bufferERNS_14__split_bufferIS2_RS4_EE ## -- Begin function _ZNSt3__16vectorIP5ValueNS_9allocatorIS2_EEE26__swap_out_circular_bufferERNS_14__split_bufferIS2_RS4_EE
	.weak_definition	__ZNSt3__16vectorIP5ValueNS_9allocatorIS2_EEE26__swap_out_circular_bufferERNS_14__split_bufferIS2_RS4_EE
	.p2align	4, 0x90
__ZNSt3__16vectorIP5ValueNS_9allocatorIS2_EEE26__swap_out_circular_bufferERNS_14__split_bufferIS2_RS4_EE: ## @_ZNSt3__16vectorIP5ValueNS_9allocatorIS2_EEE26__swap_out_circular_bufferERNS_14__split_bufferIS2_RS4_EE
	.cfi_startproc
## %bb.0:
	push	rbp
	.cfi_def_cfa_offset 16
	.cfi_offset rbp, -16
	mov	rbp, rsp
	.cfi_def_cfa_register rbp
	sub	rsp, 48
	mov	qword ptr [rbp - 8], rdi
	mov	qword ptr [rbp - 16], rsi
	mov	rax, qword ptr [rbp - 8]
	mov	rdi, rax
	mov	qword ptr [rbp - 24], rax ## 8-byte Spill
	call	__ZNKSt3__16vectorIP5ValueNS_9allocatorIS2_EEE17__annotate_deleteEv
	mov	rax, qword ptr [rbp - 24] ## 8-byte Reload
	mov	rdi, rax
	call	__ZNSt3__113__vector_baseIP5ValueNS_9allocatorIS2_EEE7__allocEv
	mov	rcx, qword ptr [rbp - 24] ## 8-byte Reload
	mov	rsi, qword ptr [rcx]
	mov	rdx, qword ptr [rcx + 8]
	mov	rdi, qword ptr [rbp - 16]
	add	rdi, 8
	mov	qword ptr [rbp - 32], rdi ## 8-byte Spill
	mov	rdi, rax
	mov	rcx, qword ptr [rbp - 32] ## 8-byte Reload
	call	__ZNSt3__116allocator_traitsINS_9allocatorIP5ValueEEE20__construct_backwardIS3_EENS_9enable_ifIXaaooL_ZNS_17integral_constantIbLb1EE5valueEEntsr15__has_constructIS4_PT_SA_EE5valuesr31is_trivially_move_constructibleISA_EE5valueEvE4typeERS4_SB_SB_RSB_
	mov	rax, qword ptr [rbp - 24] ## 8-byte Reload
	mov	rcx, qword ptr [rbp - 16]
	add	rcx, 8
	mov	rdi, rax
	mov	rsi, rcx
	call	__ZNSt3__1L4swapIPP5ValueEENS_9enable_ifIXaasr21is_move_constructibleIT_EE5valuesr18is_move_assignableIS5_EE5valueEvE4typeERS5_S8_
	mov	rax, qword ptr [rbp - 24] ## 8-byte Reload
	add	rax, 8
	mov	rcx, qword ptr [rbp - 16]
	add	rcx, 16
	mov	rdi, rax
	mov	rsi, rcx
	call	__ZNSt3__1L4swapIPP5ValueEENS_9enable_ifIXaasr21is_move_constructibleIT_EE5valuesr18is_move_assignableIS5_EE5valueEvE4typeERS5_S8_
	mov	rax, qword ptr [rbp - 24] ## 8-byte Reload
	mov	rdi, rax
	call	__ZNSt3__113__vector_baseIP5ValueNS_9allocatorIS2_EEE9__end_capEv
	mov	rdi, qword ptr [rbp - 16]
	mov	qword ptr [rbp - 40], rax ## 8-byte Spill
	call	__ZNSt3__114__split_bufferIP5ValueRNS_9allocatorIS2_EEE9__end_capEv
	mov	rdi, qword ptr [rbp - 40] ## 8-byte Reload
	mov	rsi, rax
	call	__ZNSt3__1L4swapIPP5ValueEENS_9enable_ifIXaasr21is_move_constructibleIT_EE5valuesr18is_move_assignableIS5_EE5valueEvE4typeERS5_S8_
	mov	rax, qword ptr [rbp - 16]
	mov	rax, qword ptr [rax + 8]
	mov	rcx, qword ptr [rbp - 16]
	mov	qword ptr [rcx], rax
	mov	rdi, qword ptr [rbp - 24] ## 8-byte Reload
	call	__ZNKSt3__16vectorIP5ValueNS_9allocatorIS2_EEE4sizeEv
	mov	rdi, qword ptr [rbp - 24] ## 8-byte Reload
	mov	rsi, rax
	call	__ZNKSt3__16vectorIP5ValueNS_9allocatorIS2_EEE14__annotate_newEm
	mov	rdi, qword ptr [rbp - 24] ## 8-byte Reload
	call	__ZNSt3__16vectorIP5ValueNS_9allocatorIS2_EEE26__invalidate_all_iteratorsEv
	add	rsp, 48
	pop	rbp
	ret
	.cfi_endproc
                                        ## -- End function
	.globl	__ZNSt3__114__split_bufferIP5ValueRNS_9allocatorIS2_EEED1Ev ## -- Begin function _ZNSt3__114__split_bufferIP5ValueRNS_9allocatorIS2_EEED1Ev
	.weak_def_can_be_hidden	__ZNSt3__114__split_bufferIP5ValueRNS_9allocatorIS2_EEED1Ev
	.p2align	4, 0x90
__ZNSt3__114__split_bufferIP5ValueRNS_9allocatorIS2_EEED1Ev: ## @_ZNSt3__114__split_bufferIP5ValueRNS_9allocatorIS2_EEED1Ev
	.cfi_startproc
## %bb.0:
	push	rbp
	.cfi_def_cfa_offset 16
	.cfi_offset rbp, -16
	mov	rbp, rsp
	.cfi_def_cfa_register rbp
	sub	rsp, 16
	mov	qword ptr [rbp - 8], rdi
	mov	rdi, qword ptr [rbp - 8]
	call	__ZNSt3__114__split_bufferIP5ValueRNS_9allocatorIS2_EEED2Ev
	add	rsp, 16
	pop	rbp
	ret
	.cfi_endproc
                                        ## -- End function
	.globl	__ZNKSt3__16vectorIP5ValueNS_9allocatorIS2_EEE8max_sizeEv ## -- Begin function _ZNKSt3__16vectorIP5ValueNS_9allocatorIS2_EEE8max_sizeEv
	.weak_definition	__ZNKSt3__16vectorIP5ValueNS_9allocatorIS2_EEE8max_sizeEv
	.p2align	4, 0x90
__ZNKSt3__16vectorIP5ValueNS_9allocatorIS2_EEE8max_sizeEv: ## @_ZNKSt3__16vectorIP5ValueNS_9allocatorIS2_EEE8max_sizeEv
Lfunc_begin20:
	.cfi_startproc
	.cfi_personality 155, ___gxx_personality_v0
	.cfi_lsda 16, Lexception20
## %bb.0:
	push	rbp
	.cfi_def_cfa_offset 16
	.cfi_offset rbp, -16
	mov	rbp, rsp
	.cfi_def_cfa_register rbp
	sub	rsp, 48
	mov	qword ptr [rbp - 8], rdi
	mov	rdi, qword ptr [rbp - 8]
	call	__ZNKSt3__113__vector_baseIP5ValueNS_9allocatorIS2_EEE7__allocEv
	mov	rdi, rax
	call	__ZNSt3__116allocator_traitsINS_9allocatorIP5ValueEEE8max_sizeERKS4_
	mov	qword ptr [rbp - 16], rax
	call	__ZNSt3__114numeric_limitsIlE3maxEv
	mov	qword ptr [rbp - 24], rax
Ltmp226:
	lea	rdi, [rbp - 16]
	lea	rsi, [rbp - 24]
	call	__ZNSt3__1L3minImEERKT_S3_S3_
Ltmp227:
	mov	qword ptr [rbp - 32], rax ## 8-byte Spill
	jmp	LBB207_1
LBB207_1:
	mov	rax, qword ptr [rbp - 32] ## 8-byte Reload
	mov	rax, qword ptr [rax]
	add	rsp, 48
	pop	rbp
	ret
LBB207_2:
Ltmp228:
	mov	rdi, rax
	mov	qword ptr [rbp - 40], rdx ## 8-byte Spill
	call	___clang_call_terminate
Lfunc_end20:
	.cfi_endproc
	.section	__TEXT,__gcc_except_tab
	.p2align	2
GCC_except_table207:
Lexception20:
	.byte	255                     ## @LPStart Encoding = omit
	.byte	155                     ## @TType Encoding = indirect pcrel sdata4
	.uleb128 Lttbase14-Lttbaseref14
Lttbaseref14:
	.byte	1                       ## Call site Encoding = uleb128
	.uleb128 Lcst_end20-Lcst_begin20
Lcst_begin20:
	.uleb128 Ltmp226-Lfunc_begin20  ## >> Call Site 1 <<
	.uleb128 Ltmp227-Ltmp226        ##   Call between Ltmp226 and Ltmp227
	.uleb128 Ltmp228-Lfunc_begin20  ##     jumps to Ltmp228
	.byte	1                       ##   On action: 1
Lcst_end20:
	.byte	1                       ## >> Action Record 1 <<
                                        ##   Catch TypeInfo 1
	.byte	0                       ##   No further actions
	.p2align	2
                                        ## >> Catch TypeInfos <<
	.long	0                       ## TypeInfo 1
Lttbase14:
	.p2align	2
                                        ## -- End function
	.section	__TEXT,__text,regular,pure_instructions
	.p2align	4, 0x90         ## -- Begin function _ZNKSt3__16vectorIP5ValueNS_9allocatorIS2_EEE8capacityEv
__ZNKSt3__16vectorIP5ValueNS_9allocatorIS2_EEE8capacityEv: ## @_ZNKSt3__16vectorIP5ValueNS_9allocatorIS2_EEE8capacityEv
	.cfi_startproc
## %bb.0:
	push	rbp
	.cfi_def_cfa_offset 16
	.cfi_offset rbp, -16
	mov	rbp, rsp
	.cfi_def_cfa_register rbp
	sub	rsp, 16
	mov	qword ptr [rbp - 8], rdi
	mov	rax, qword ptr [rbp - 8]
	mov	rdi, rax
	call	__ZNKSt3__113__vector_baseIP5ValueNS_9allocatorIS2_EEE8capacityEv
	add	rsp, 16
	pop	rbp
	ret
	.cfi_endproc
                                        ## -- End function
	.p2align	4, 0x90         ## -- Begin function _ZNSt3__1L3maxImEERKT_S3_S3_
__ZNSt3__1L3maxImEERKT_S3_S3_:          ## @_ZNSt3__1L3maxImEERKT_S3_S3_
	.cfi_startproc
## %bb.0:
	push	rbp
	.cfi_def_cfa_offset 16
	.cfi_offset rbp, -16
	mov	rbp, rsp
	.cfi_def_cfa_register rbp
	sub	rsp, 32
	mov	qword ptr [rbp - 8], rdi
	mov	qword ptr [rbp - 16], rsi
	mov	rdi, qword ptr [rbp - 8]
	mov	rsi, qword ptr [rbp - 16]
	call	__ZNSt3__1L3maxImNS_6__lessImmEEEERKT_S5_S5_T0_
	add	rsp, 32
	pop	rbp
	ret
	.cfi_endproc
                                        ## -- End function
	.p2align	4, 0x90         ## -- Begin function _ZNSt3__1L3minImEERKT_S3_S3_
__ZNSt3__1L3minImEERKT_S3_S3_:          ## @_ZNSt3__1L3minImEERKT_S3_S3_
	.cfi_startproc
## %bb.0:
	push	rbp
	.cfi_def_cfa_offset 16
	.cfi_offset rbp, -16
	mov	rbp, rsp
	.cfi_def_cfa_register rbp
	sub	rsp, 32
	mov	qword ptr [rbp - 8], rdi
	mov	qword ptr [rbp - 16], rsi
	mov	rdi, qword ptr [rbp - 8]
	mov	rsi, qword ptr [rbp - 16]
	call	__ZNSt3__1L3minImNS_6__lessImmEEEERKT_S5_S5_T0_
	add	rsp, 32
	pop	rbp
	ret
	.cfi_endproc
                                        ## -- End function
	.p2align	4, 0x90         ## -- Begin function _ZNSt3__116allocator_traitsINS_9allocatorIP5ValueEEE8max_sizeERKS4_
__ZNSt3__116allocator_traitsINS_9allocatorIP5ValueEEE8max_sizeERKS4_: ## @_ZNSt3__116allocator_traitsINS_9allocatorIP5ValueEEE8max_sizeERKS4_
	.cfi_startproc
## %bb.0:
	push	rbp
	.cfi_def_cfa_offset 16
	.cfi_offset rbp, -16
	mov	rbp, rsp
	.cfi_def_cfa_register rbp
	sub	rsp, 32
	mov	qword ptr [rbp - 8], rdi
	mov	rdi, qword ptr [rbp - 8]
	call	__ZNSt3__116allocator_traitsINS_9allocatorIP5ValueEEE10__max_sizeENS_17integral_constantIbLb1EEERKS4_
	add	rsp, 32
	pop	rbp
	ret
	.cfi_endproc
                                        ## -- End function
	.p2align	4, 0x90         ## -- Begin function _ZNKSt3__113__vector_baseIP5ValueNS_9allocatorIS2_EEE7__allocEv
__ZNKSt3__113__vector_baseIP5ValueNS_9allocatorIS2_EEE7__allocEv: ## @_ZNKSt3__113__vector_baseIP5ValueNS_9allocatorIS2_EEE7__allocEv
	.cfi_startproc
## %bb.0:
	push	rbp
	.cfi_def_cfa_offset 16
	.cfi_offset rbp, -16
	mov	rbp, rsp
	.cfi_def_cfa_register rbp
	sub	rsp, 16
	mov	qword ptr [rbp - 8], rdi
	mov	rax, qword ptr [rbp - 8]
	add	rax, 16
	mov	rdi, rax
	call	__ZNKSt3__117__compressed_pairIPP5ValueNS_9allocatorIS2_EEE6secondEv
	add	rsp, 16
	pop	rbp
	ret
	.cfi_endproc
                                        ## -- End function
	.p2align	4, 0x90         ## -- Begin function _ZNSt3__114numeric_limitsIlE3maxEv
__ZNSt3__114numeric_limitsIlE3maxEv:    ## @_ZNSt3__114numeric_limitsIlE3maxEv
	.cfi_startproc
## %bb.0:
	push	rbp
	.cfi_def_cfa_offset 16
	.cfi_offset rbp, -16
	mov	rbp, rsp
	.cfi_def_cfa_register rbp
	call	__ZNSt3__123__libcpp_numeric_limitsIlLb1EE3maxEv
	pop	rbp
	ret
	.cfi_endproc
                                        ## -- End function
	.p2align	4, 0x90         ## -- Begin function _ZNSt3__1L3minImNS_6__lessImmEEEERKT_S5_S5_T0_
__ZNSt3__1L3minImNS_6__lessImmEEEERKT_S5_S5_T0_: ## @_ZNSt3__1L3minImNS_6__lessImmEEEERKT_S5_S5_T0_
	.cfi_startproc
## %bb.0:
	push	rbp
	.cfi_def_cfa_offset 16
	.cfi_offset rbp, -16
	mov	rbp, rsp
	.cfi_def_cfa_register rbp
	sub	rsp, 32
	mov	qword ptr [rbp - 16], rdi
	mov	qword ptr [rbp - 24], rsi
	mov	rsi, qword ptr [rbp - 24]
	mov	rdx, qword ptr [rbp - 16]
	lea	rdi, [rbp - 8]
	call	__ZNKSt3__16__lessImmEclERKmS3_
	test	al, 1
	jne	LBB214_1
	jmp	LBB214_2
LBB214_1:
	mov	rax, qword ptr [rbp - 24]
	mov	qword ptr [rbp - 32], rax ## 8-byte Spill
	jmp	LBB214_3
LBB214_2:
	mov	rax, qword ptr [rbp - 16]
	mov	qword ptr [rbp - 32], rax ## 8-byte Spill
LBB214_3:
	mov	rax, qword ptr [rbp - 32] ## 8-byte Reload
	add	rsp, 32
	pop	rbp
	ret
	.cfi_endproc
                                        ## -- End function
	.p2align	4, 0x90         ## -- Begin function _ZNKSt3__16__lessImmEclERKmS3_
__ZNKSt3__16__lessImmEclERKmS3_:        ## @_ZNKSt3__16__lessImmEclERKmS3_
	.cfi_startproc
## %bb.0:
	push	rbp
	.cfi_def_cfa_offset 16
	.cfi_offset rbp, -16
	mov	rbp, rsp
	.cfi_def_cfa_register rbp
	mov	qword ptr [rbp - 8], rdi
	mov	qword ptr [rbp - 16], rsi
	mov	qword ptr [rbp - 24], rdx
	mov	rax, qword ptr [rbp - 16]
	mov	rax, qword ptr [rax]
	mov	rcx, qword ptr [rbp - 24]
	cmp	rax, qword ptr [rcx]
	setb	r8b
	and	r8b, 1
	movzx	eax, r8b
	pop	rbp
	ret
	.cfi_endproc
                                        ## -- End function
	.p2align	4, 0x90         ## -- Begin function _ZNSt3__116allocator_traitsINS_9allocatorIP5ValueEEE10__max_sizeENS_17integral_constantIbLb1EEERKS4_
__ZNSt3__116allocator_traitsINS_9allocatorIP5ValueEEE10__max_sizeENS_17integral_constantIbLb1EEERKS4_: ## @_ZNSt3__116allocator_traitsINS_9allocatorIP5ValueEEE10__max_sizeENS_17integral_constantIbLb1EEERKS4_
	.cfi_startproc
## %bb.0:
	push	rbp
	.cfi_def_cfa_offset 16
	.cfi_offset rbp, -16
	mov	rbp, rsp
	.cfi_def_cfa_register rbp
	sub	rsp, 16
	mov	qword ptr [rbp - 16], rdi
	mov	rdi, qword ptr [rbp - 16]
	call	__ZNKSt3__19allocatorIP5ValueE8max_sizeEv
	add	rsp, 16
	pop	rbp
	ret
	.cfi_endproc
                                        ## -- End function
	.p2align	4, 0x90         ## -- Begin function _ZNKSt3__19allocatorIP5ValueE8max_sizeEv
__ZNKSt3__19allocatorIP5ValueE8max_sizeEv: ## @_ZNKSt3__19allocatorIP5ValueE8max_sizeEv
	.cfi_startproc
## %bb.0:
	push	rbp
	.cfi_def_cfa_offset 16
	.cfi_offset rbp, -16
	mov	rbp, rsp
	.cfi_def_cfa_register rbp
	mov	qword ptr [rbp - 8], rdi
	movabs	rax, 2305843009213693951
	pop	rbp
	ret
	.cfi_endproc
                                        ## -- End function
	.p2align	4, 0x90         ## -- Begin function _ZNKSt3__117__compressed_pairIPP5ValueNS_9allocatorIS2_EEE6secondEv
__ZNKSt3__117__compressed_pairIPP5ValueNS_9allocatorIS2_EEE6secondEv: ## @_ZNKSt3__117__compressed_pairIPP5ValueNS_9allocatorIS2_EEE6secondEv
	.cfi_startproc
## %bb.0:
	push	rbp
	.cfi_def_cfa_offset 16
	.cfi_offset rbp, -16
	mov	rbp, rsp
	.cfi_def_cfa_register rbp
	sub	rsp, 16
	mov	qword ptr [rbp - 8], rdi
	mov	rax, qword ptr [rbp - 8]
	mov	rdi, rax
	call	__ZNKSt3__122__compressed_pair_elemINS_9allocatorIP5ValueEELi1ELb1EE5__getEv
	add	rsp, 16
	pop	rbp
	ret
	.cfi_endproc
                                        ## -- End function
	.p2align	4, 0x90         ## -- Begin function _ZNKSt3__122__compressed_pair_elemINS_9allocatorIP5ValueEELi1ELb1EE5__getEv
__ZNKSt3__122__compressed_pair_elemINS_9allocatorIP5ValueEELi1ELb1EE5__getEv: ## @_ZNKSt3__122__compressed_pair_elemINS_9allocatorIP5ValueEELi1ELb1EE5__getEv
	.cfi_startproc
## %bb.0:
	push	rbp
	.cfi_def_cfa_offset 16
	.cfi_offset rbp, -16
	mov	rbp, rsp
	.cfi_def_cfa_register rbp
	mov	qword ptr [rbp - 8], rdi
	mov	rax, qword ptr [rbp - 8]
	pop	rbp
	ret
	.cfi_endproc
                                        ## -- End function
	.p2align	4, 0x90         ## -- Begin function _ZNSt3__123__libcpp_numeric_limitsIlLb1EE3maxEv
__ZNSt3__123__libcpp_numeric_limitsIlLb1EE3maxEv: ## @_ZNSt3__123__libcpp_numeric_limitsIlLb1EE3maxEv
	.cfi_startproc
## %bb.0:
	push	rbp
	.cfi_def_cfa_offset 16
	.cfi_offset rbp, -16
	mov	rbp, rsp
	.cfi_def_cfa_register rbp
	movabs	rax, 9223372036854775807
	pop	rbp
	ret
	.cfi_endproc
                                        ## -- End function
	.p2align	4, 0x90         ## -- Begin function _ZNKSt3__113__vector_baseIP5ValueNS_9allocatorIS2_EEE8capacityEv
__ZNKSt3__113__vector_baseIP5ValueNS_9allocatorIS2_EEE8capacityEv: ## @_ZNKSt3__113__vector_baseIP5ValueNS_9allocatorIS2_EEE8capacityEv
	.cfi_startproc
## %bb.0:
	push	rbp
	.cfi_def_cfa_offset 16
	.cfi_offset rbp, -16
	mov	rbp, rsp
	.cfi_def_cfa_register rbp
	sub	rsp, 16
	mov	qword ptr [rbp - 8], rdi
	mov	rax, qword ptr [rbp - 8]
	mov	rdi, rax
	mov	qword ptr [rbp - 16], rax ## 8-byte Spill
	call	__ZNKSt3__113__vector_baseIP5ValueNS_9allocatorIS2_EEE9__end_capEv
	mov	rax, qword ptr [rax]
	mov	rcx, qword ptr [rbp - 16] ## 8-byte Reload
	mov	rdx, qword ptr [rcx]
	sub	rax, rdx
	sar	rax, 3
	add	rsp, 16
	pop	rbp
	ret
	.cfi_endproc
                                        ## -- End function
	.p2align	4, 0x90         ## -- Begin function _ZNKSt3__113__vector_baseIP5ValueNS_9allocatorIS2_EEE9__end_capEv
__ZNKSt3__113__vector_baseIP5ValueNS_9allocatorIS2_EEE9__end_capEv: ## @_ZNKSt3__113__vector_baseIP5ValueNS_9allocatorIS2_EEE9__end_capEv
	.cfi_startproc
## %bb.0:
	push	rbp
	.cfi_def_cfa_offset 16
	.cfi_offset rbp, -16
	mov	rbp, rsp
	.cfi_def_cfa_register rbp
	sub	rsp, 16
	mov	qword ptr [rbp - 8], rdi
	mov	rax, qword ptr [rbp - 8]
	add	rax, 16
	mov	rdi, rax
	call	__ZNKSt3__117__compressed_pairIPP5ValueNS_9allocatorIS2_EEE5firstEv
	add	rsp, 16
	pop	rbp
	ret
	.cfi_endproc
                                        ## -- End function
	.p2align	4, 0x90         ## -- Begin function _ZNKSt3__117__compressed_pairIPP5ValueNS_9allocatorIS2_EEE5firstEv
__ZNKSt3__117__compressed_pairIPP5ValueNS_9allocatorIS2_EEE5firstEv: ## @_ZNKSt3__117__compressed_pairIPP5ValueNS_9allocatorIS2_EEE5firstEv
	.cfi_startproc
## %bb.0:
	push	rbp
	.cfi_def_cfa_offset 16
	.cfi_offset rbp, -16
	mov	rbp, rsp
	.cfi_def_cfa_register rbp
	sub	rsp, 16
	mov	qword ptr [rbp - 8], rdi
	mov	rax, qword ptr [rbp - 8]
	mov	rdi, rax
	call	__ZNKSt3__122__compressed_pair_elemIPP5ValueLi0ELb0EE5__getEv
	add	rsp, 16
	pop	rbp
	ret
	.cfi_endproc
                                        ## -- End function
	.p2align	4, 0x90         ## -- Begin function _ZNKSt3__122__compressed_pair_elemIPP5ValueLi0ELb0EE5__getEv
__ZNKSt3__122__compressed_pair_elemIPP5ValueLi0ELb0EE5__getEv: ## @_ZNKSt3__122__compressed_pair_elemIPP5ValueLi0ELb0EE5__getEv
	.cfi_startproc
## %bb.0:
	push	rbp
	.cfi_def_cfa_offset 16
	.cfi_offset rbp, -16
	mov	rbp, rsp
	.cfi_def_cfa_register rbp
	mov	qword ptr [rbp - 8], rdi
	mov	rax, qword ptr [rbp - 8]
	pop	rbp
	ret
	.cfi_endproc
                                        ## -- End function
	.p2align	4, 0x90         ## -- Begin function _ZNSt3__1L3maxImNS_6__lessImmEEEERKT_S5_S5_T0_
__ZNSt3__1L3maxImNS_6__lessImmEEEERKT_S5_S5_T0_: ## @_ZNSt3__1L3maxImNS_6__lessImmEEEERKT_S5_S5_T0_
	.cfi_startproc
## %bb.0:
	push	rbp
	.cfi_def_cfa_offset 16
	.cfi_offset rbp, -16
	mov	rbp, rsp
	.cfi_def_cfa_register rbp
	sub	rsp, 32
	mov	qword ptr [rbp - 16], rdi
	mov	qword ptr [rbp - 24], rsi
	mov	rsi, qword ptr [rbp - 16]
	mov	rdx, qword ptr [rbp - 24]
	lea	rdi, [rbp - 8]
	call	__ZNKSt3__16__lessImmEclERKmS3_
	test	al, 1
	jne	LBB225_1
	jmp	LBB225_2
LBB225_1:
	mov	rax, qword ptr [rbp - 24]
	mov	qword ptr [rbp - 32], rax ## 8-byte Spill
	jmp	LBB225_3
LBB225_2:
	mov	rax, qword ptr [rbp - 16]
	mov	qword ptr [rbp - 32], rax ## 8-byte Spill
LBB225_3:
	mov	rax, qword ptr [rbp - 32] ## 8-byte Reload
	add	rsp, 32
	pop	rbp
	ret
	.cfi_endproc
                                        ## -- End function
	.globl	__ZNSt3__114__split_bufferIP5ValueRNS_9allocatorIS2_EEEC2EmmS5_ ## -- Begin function _ZNSt3__114__split_bufferIP5ValueRNS_9allocatorIS2_EEEC2EmmS5_
	.weak_def_can_be_hidden	__ZNSt3__114__split_bufferIP5ValueRNS_9allocatorIS2_EEEC2EmmS5_
	.p2align	4, 0x90
__ZNSt3__114__split_bufferIP5ValueRNS_9allocatorIS2_EEEC2EmmS5_: ## @_ZNSt3__114__split_bufferIP5ValueRNS_9allocatorIS2_EEEC2EmmS5_
	.cfi_startproc
## %bb.0:
	push	rbp
	.cfi_def_cfa_offset 16
	.cfi_offset rbp, -16
	mov	rbp, rsp
	.cfi_def_cfa_register rbp
	sub	rsp, 64
	mov	qword ptr [rbp - 8], rdi
	mov	qword ptr [rbp - 16], rsi
	mov	qword ptr [rbp - 24], rdx
	mov	qword ptr [rbp - 32], rcx
	mov	rax, qword ptr [rbp - 8]
	mov	rcx, rax
	add	rcx, 24
	mov	qword ptr [rbp - 40], 0
	mov	rdx, qword ptr [rbp - 32]
	mov	rdi, rcx
	lea	rsi, [rbp - 40]
	mov	qword ptr [rbp - 48], rax ## 8-byte Spill
	call	__ZNSt3__117__compressed_pairIPP5ValueRNS_9allocatorIS2_EEEC1IDnS6_EEOT_OT0_
	cmp	qword ptr [rbp - 16], 0
	je	LBB226_2
## %bb.1:
	mov	rdi, qword ptr [rbp - 48] ## 8-byte Reload
	call	__ZNSt3__114__split_bufferIP5ValueRNS_9allocatorIS2_EEE7__allocEv
	mov	rsi, qword ptr [rbp - 16]
	mov	rdi, rax
	call	__ZNSt3__116allocator_traitsINS_9allocatorIP5ValueEEE8allocateERS4_m
	mov	qword ptr [rbp - 56], rax ## 8-byte Spill
	jmp	LBB226_3
LBB226_2:
	xor	eax, eax
	mov	ecx, eax
	mov	qword ptr [rbp - 56], rcx ## 8-byte Spill
	jmp	LBB226_3
LBB226_3:
	mov	rax, qword ptr [rbp - 56] ## 8-byte Reload
	mov	rcx, qword ptr [rbp - 48] ## 8-byte Reload
	mov	qword ptr [rcx], rax
	mov	rax, qword ptr [rcx]
	mov	rdx, qword ptr [rbp - 24]
	shl	rdx, 3
	add	rax, rdx
	mov	qword ptr [rcx + 16], rax
	mov	qword ptr [rcx + 8], rax
	mov	rax, qword ptr [rcx]
	mov	rdx, qword ptr [rbp - 16]
	shl	rdx, 3
	add	rax, rdx
	mov	rdi, rcx
	mov	qword ptr [rbp - 64], rax ## 8-byte Spill
	call	__ZNSt3__114__split_bufferIP5ValueRNS_9allocatorIS2_EEE9__end_capEv
	mov	rcx, qword ptr [rbp - 64] ## 8-byte Reload
	mov	qword ptr [rax], rcx
	add	rsp, 64
	pop	rbp
	ret
	.cfi_endproc
                                        ## -- End function
	.p2align	4, 0x90         ## -- Begin function _ZNSt3__117__compressed_pairIPP5ValueRNS_9allocatorIS2_EEEC1IDnS6_EEOT_OT0_
__ZNSt3__117__compressed_pairIPP5ValueRNS_9allocatorIS2_EEEC1IDnS6_EEOT_OT0_: ## @_ZNSt3__117__compressed_pairIPP5ValueRNS_9allocatorIS2_EEEC1IDnS6_EEOT_OT0_
	.cfi_startproc
## %bb.0:
	push	rbp
	.cfi_def_cfa_offset 16
	.cfi_offset rbp, -16
	mov	rbp, rsp
	.cfi_def_cfa_register rbp
	sub	rsp, 32
	mov	qword ptr [rbp - 8], rdi
	mov	qword ptr [rbp - 16], rsi
	mov	qword ptr [rbp - 24], rdx
	mov	rdi, qword ptr [rbp - 8]
	mov	rsi, qword ptr [rbp - 16]
	mov	rdx, qword ptr [rbp - 24]
	call	__ZNSt3__117__compressed_pairIPP5ValueRNS_9allocatorIS2_EEEC2IDnS6_EEOT_OT0_
	add	rsp, 32
	pop	rbp
	ret
	.cfi_endproc
                                        ## -- End function
	.p2align	4, 0x90         ## -- Begin function _ZNSt3__116allocator_traitsINS_9allocatorIP5ValueEEE8allocateERS4_m
__ZNSt3__116allocator_traitsINS_9allocatorIP5ValueEEE8allocateERS4_m: ## @_ZNSt3__116allocator_traitsINS_9allocatorIP5ValueEEE8allocateERS4_m
	.cfi_startproc
## %bb.0:
	push	rbp
	.cfi_def_cfa_offset 16
	.cfi_offset rbp, -16
	mov	rbp, rsp
	.cfi_def_cfa_register rbp
	sub	rsp, 16
	xor	eax, eax
	mov	edx, eax
	mov	qword ptr [rbp - 8], rdi
	mov	qword ptr [rbp - 16], rsi
	mov	rdi, qword ptr [rbp - 8]
	mov	rsi, qword ptr [rbp - 16]
	call	__ZNSt3__19allocatorIP5ValueE8allocateEmPKv
	add	rsp, 16
	pop	rbp
	ret
	.cfi_endproc
                                        ## -- End function
	.p2align	4, 0x90         ## -- Begin function _ZNSt3__114__split_bufferIP5ValueRNS_9allocatorIS2_EEE7__allocEv
__ZNSt3__114__split_bufferIP5ValueRNS_9allocatorIS2_EEE7__allocEv: ## @_ZNSt3__114__split_bufferIP5ValueRNS_9allocatorIS2_EEE7__allocEv
	.cfi_startproc
## %bb.0:
	push	rbp
	.cfi_def_cfa_offset 16
	.cfi_offset rbp, -16
	mov	rbp, rsp
	.cfi_def_cfa_register rbp
	sub	rsp, 16
	mov	qword ptr [rbp - 8], rdi
	mov	rax, qword ptr [rbp - 8]
	add	rax, 24
	mov	rdi, rax
	call	__ZNSt3__117__compressed_pairIPP5ValueRNS_9allocatorIS2_EEE6secondEv
	add	rsp, 16
	pop	rbp
	ret
	.cfi_endproc
                                        ## -- End function
	.p2align	4, 0x90         ## -- Begin function _ZNSt3__114__split_bufferIP5ValueRNS_9allocatorIS2_EEE9__end_capEv
__ZNSt3__114__split_bufferIP5ValueRNS_9allocatorIS2_EEE9__end_capEv: ## @_ZNSt3__114__split_bufferIP5ValueRNS_9allocatorIS2_EEE9__end_capEv
	.cfi_startproc
## %bb.0:
	push	rbp
	.cfi_def_cfa_offset 16
	.cfi_offset rbp, -16
	mov	rbp, rsp
	.cfi_def_cfa_register rbp
	sub	rsp, 16
	mov	qword ptr [rbp - 8], rdi
	mov	rax, qword ptr [rbp - 8]
	add	rax, 24
	mov	rdi, rax
	call	__ZNSt3__117__compressed_pairIPP5ValueRNS_9allocatorIS2_EEE5firstEv
	add	rsp, 16
	pop	rbp
	ret
	.cfi_endproc
                                        ## -- End function
